CCS PCH C Compiler, Version 4.045, 36857               31-Jul-13 12:12

               Filename: C:\Program Files (x86)\Programs\IncuScope\PIC Codes\PIC Code for INCUMOTOR PIC\IncuScopeStepperPIC.lst

               ROM used: 4132 bytes (17%)
                         Largest free fragment is 20440
               RAM used: 630 (31%) at main() level
                         677 (33%) worst case
               Stack:    11 worst case (4 in main + 7 for interrupts)

*
0000:  GOTO   0F88
*
0008:  MOVWF  05
000A:  MOVFF  FD8,06
000E:  MOVFF  FE0,07
0012:  MOVLB  0
0014:  MOVFF  FE9,0D
0018:  MOVFF  FEA,08
001C:  MOVFF  FE1,09
0020:  MOVFF  FE2,0A
0024:  MOVFF  FD9,0B
0028:  MOVFF  FDA,0C
002C:  MOVFF  FF3,14
0030:  MOVFF  FF4,15
0034:  MOVFF  FFA,16
0038:  MOVFF  00,0F
003C:  MOVFF  01,10
0040:  MOVFF  02,11
0044:  MOVFF  03,12
0048:  MOVFF  04,13
004C:  BTFSS  FA0.5
004E:  GOTO   0058
0052:  BTFSC  FA1.5
0054:  GOTO   0BF6
0058:  MOVFF  0F,00
005C:  MOVFF  10,01
0060:  MOVFF  11,02
0064:  MOVFF  12,03
0068:  MOVFF  13,04
006C:  BSF    0E.7
006E:  MOVFF  0D,FE9
0072:  MOVFF  08,FEA
0076:  MOVFF  09,FE1
007A:  MOVFF  0A,FE2
007E:  MOVFF  0B,FD9
0082:  MOVFF  0C,FDA
0086:  MOVFF  14,FF3
008A:  MOVFF  15,FF4
008E:  MOVFF  16,FFA
0092:  MOVF   05,W
0094:  MOVFF  07,FE0
0098:  MOVFF  06,FD8
009C:  RETFIE 0
.................... /******************************************************************************** 
.................... IncuScope.c  
.................... W. Zipfel, Tae Cooke                         V2.0                   10/2011 
....................  
.................... IncuScope  PIC code command set:  
.................... Query command:  q - Returns a string which lists state of all LEDs 
.................... All LEDS off:  a   
.................... Step motor forward for n cycles:   fn,  where n = 0 to 255 
.................... Step motor in reverse for n cycles:   rn, where n = 0 to 255 
.................... Toggle dark field illuminator ON/OFF:  d            
.................... Toggle white LED ON/OFF :  w        
.................... Toggle red LED ON/OFF :  1  
.................... Toggle green LED ON/OFF :  2 
.................... Toggle blue LED ON/OFF :  3        
....................  
.................... ******************************************************************************/ 
.................... #include <18F2455.h> 
.................... //////// Standard Header file for the PIC18F2455 device //////////////// 
.................... #device PIC18F2455 
.................... #list 
....................  
.................... #fuses HSPLL,NOWDT, NOPROTECT,NOLVP,NODEBUG,USBDIV,PLL5,CPUDIV1,VREGEN, MCLR 
.................... #use delay(clock=48000000) 
*
0DE4:  CLRF   FEA
0DE6:  MOVLW  86
0DE8:  MOVWF  FE9
0DEA:  MOVF   FEF,W
0DEC:  BZ    0E0A
0DEE:  MOVLW  0F
0DF0:  MOVWF  01
0DF2:  CLRF   00
0DF4:  DECFSZ 00,F
0DF6:  BRA    0DF4
0DF8:  DECFSZ 01,F
0DFA:  BRA    0DF2
0DFC:  MOVLW  8F
0DFE:  MOVWF  00
0E00:  DECFSZ 00,F
0E02:  BRA    0E00
0E04:  NOP   
0E06:  DECFSZ FEF,F
0E08:  BRA    0DEE
0E0A:  RETLW  00
.................... #include <stdlib.h> 
.................... /////////////////////////////////////////////////////////////////////////// 
.................... ////        (C) Copyright 1996,2007 Custom Computer Services           //// 
.................... //// This source code may only be used by licensed users of the CCS C  //// 
.................... //// compiler.  This source code may only be distributed to other      //// 
.................... //// licensed users of the CCS C compiler.  No other use, reproduction //// 
.................... //// or distribution is permitted without written permission.          //// 
.................... //// Derivative programs created using this software in object code    //// 
.................... //// form are not restricted in any way.                               //// 
.................... /////////////////////////////////////////////////////////////////////////// 
....................  
.................... #ifndef _STDLIB 
.................... #define _STDLIB 
....................  
.................... //--------------------------------------------------------------------------- 
.................... // Definitions and types 
.................... //--------------------------------------------------------------------------- 
....................  
.................... #ifndef RAND_MAX 
.................... #define RAND_MAX  32767    // The value of which is the maximum value 
....................                            // ... returned by the rand function 
.................... #endif 
....................  
.................... #IF (sizeof(int16*)>1) 
.................... #DEFINE LONG_POINTERS 1 
.................... #ELSE  
.................... #DEFINE LONG_POINTERS 0 
.................... #ENDIF 
....................  
....................  
.................... typedef struct { 
....................    signed int quot; 
....................    signed int rem; 
.................... } div_t; 
....................  
.................... typedef struct { 
....................    signed long quot; 
....................    signed long rem; 
.................... } ldiv_t; 
....................  
.................... #include <stddef.h> 
.................... /////////////////////////////////////////////////////////////////////////// 
.................... ////        (C) Copyright 1996,2003 Custom Computer Services           //// 
.................... //// This source code may only be used by licensed users of the CCS C  //// 
.................... //// compiler.  This source code may only be distributed to other      //// 
.................... //// licensed users of the CCS C compiler.  No other use, reproduction //// 
.................... //// or distribution is permitted without written permission.          //// 
.................... //// Derivative programs created using this software in object code    //// 
.................... //// form are not restricted in any way.                               //// 
.................... /////////////////////////////////////////////////////////////////////////// 
....................  
.................... #ifndef _STDDEF 
....................  
.................... #define _STDDEF 
....................  
.................... #if sizeof(int *)==1 
.................... #define ptrdiff_t int 
.................... #else 
.................... #define ptrdiff_t long 
.................... #endif 
....................  
.................... #define size_t int 
.................... #define wchar_t char 
.................... #define NULL 0 
....................  
.................... #define offsetof(s,f) (offsetofbit(s,f)/8) 
....................  
.................... #endif 
....................  
....................  
.................... //--------------------------------------------------------------------------- 
.................... // String conversion functions 
.................... //--------------------------------------------------------------------------- 
....................  
.................... /* Standard template: float atof(char * s) 
....................  * converts the initial portion of the string s to a float. 
....................  * returns the converted value if any, 0 otherwise 
....................  */ 
.................... float atof(char * s); 
....................  
.................... /* Standard template: float atoe(char * s) 
....................  * converts the initial portion of the string s to a float. 
....................  * returns the converted value if any, 0 otherwise 
....................  * also handles E format numbers 
....................  */ 
.................... float atoe(char * s); 
....................  
.................... /* Standard template: signed int  atoi(char * s) 
....................  * converts the initial portion of the string s to a signed int 
....................  * returns the converted value if any, 0 otherwise 
....................  */ 
.................... signed int atoi(char *s); 
....................  
.................... /* Syntax: signed int32  atoi32(char * s) 
....................    converts the initial portion of the string s to a signed int32 
....................    returns the converted value if any, 0 otherwise*/ 
.................... signed int32 atoi32(char *s); 
....................  
.................... /* Syntax: char *  itoa(signed int32 num, int8 base, char * s) 
....................    converts the signed int32 to a string and 
....................    returns the converted value if any, 0 otherwise*/ 
.................... char * itoa(signed int32 num, int8 base, char * s); 
....................  
.................... /* Standard template: signed long  atol(char * s) 
....................  * converts the initial portion of the string s to a signed long 
....................  * returns the converted value if any, 0 otherwise 
....................  */ 
.................... signed long atol(char *s); 
....................  
.................... /* Standard template: float strtol(char * s,char *endptr) 
....................  * converts the initial portion of the string s to a float 
....................  * returns the converted value if any, 0 otherwise 
....................  * the final string is returned in the endptr, if endptr is not null 
....................  */ 
.................... float strtod(char *s,char *endptr); 
....................  
.................... /* Standard template: long strtoul(char * s,char *endptr,signed int base) 
....................  * converts the initial portion of the string s, represented as an 
....................  * integral value of radix base  to a signed long. 
....................  * Returns the converted value if any, 0 otherwise 
....................  * the final string is returned in the endptr, if endptr is not null 
....................  */ 
.................... signed long strtol(char *s,char *endptr,signed int base); 
....................  
.................... /* Standard template: long strtoul(char * s,char *endptr,signed int base) 
....................  * converts the initial portion of the string s, represented as an 
....................  * integral value of radix base to a unsigned long. 
....................  * returns the converted value if any, 0 otherwise 
....................  * the final string is returned in the endptr, if endptr is not null 
....................  */ 
.................... long strtoul(char *s,char *endptr,signed int base); 
....................  
.................... //--------------------------------------------------------------------------- 
.................... // Pseudo-random sequence generation functions 
.................... //--------------------------------------------------------------------------- 
....................  
.................... /* The rand function computes a sequence of pseudo-random integers in 
....................  * the range 0 to RAND_MAX 
....................  * 
....................  * Parameters: 
....................  *       (none) 
....................  * 
....................  * Returns: 
....................  *       The pseudo-random integer 
....................  */ 
.................... long rand(void); 
....................  
.................... /* The srand function uses the argument as a seed for a new sequence of 
....................  * pseudo-random numbers to be returned by subsequent calls to rand. 
....................  * 
....................  * Parameters: 
....................  *       [in] seed: The seed value to start from. You might need to pass 
....................  * 
....................  * Returns: 
....................  *       (none) 
....................  * 
....................  * Remarks 
....................  *          The srand function sets the starting point for generating 
....................  *       a series of pseudorandom integers. To reinitialize the 
....................  *       generator, use 1 as the seed argument. Any other value for 
....................  *       seed sets the generator to a random starting point. rand 
....................  *       retrieves the pseudorandom numbers that are generated. 
....................  *       Calling rand before any call to srand generates the same 
....................  *       sequence as calling srand with seed passed as 1. 
....................  *          Usually, you need to pass a time here from outer source 
....................  *       so that the numbers will be different every time you run. 
....................  */ 
.................... void srand(unsigned int32 seed); 
....................  
.................... //--------------------------------------------------------------------------- 
.................... // Memory management functions 
.................... //--------------------------------------------------------------------------- 
....................  
.................... // Comming soon 
....................  
.................... //--------------------------------------------------------------------------- 
.................... // Communication with the environment 
.................... //--------------------------------------------------------------------------- 
....................  
.................... /* The function returns 0 always 
....................  */ 
.................... signed int system(char *string); 
....................  
.................... //--------------------------------------------------------------------------- 
.................... // Searching and sorting utilities 
.................... //--------------------------------------------------------------------------- 
....................  
.................... /* Performs a binary search of a sorted array.. 
....................  * 
....................  * Parameters: 
....................  *       [in] key: Object to search for 
....................  *       [in] base: Pointer to base of search data 
....................  *       [in] num: Number of elements 
....................  *       [in] width: Width of elements 
....................  *       [in] compare: Function that compares two elements 
....................  * 
....................  * Returns: 
....................  *       bsearch returns a pointer to an occurrence of key in the array pointed 
....................  *       to by base. If key is not found, the function returns NULL. If the 
....................  *       array is not in order or contains duplicate records with identical keys, 
....................  *       the result is unpredictable. 
....................  */ 
.................... //void *bsearch(const void *key, const void *base, size_t num, size_t width, 
.................... //              int (*compare)(const void *, const void *)); 
....................  
.................... /* Performs the shell-metzner sort (not the quick sort algorithm). The contents 
....................  * of the array are sorted into ascending order according to a comparison 
....................  * function pointed to by compar. 
....................  * 
....................  * Parameters: 
....................  *       [in] base: Pointer to base of search data 
....................  *       [in] num: Number of elements 
....................  *       [in] width: Width of elements 
....................  *       [in] compare: Function that compares two elements 
....................  * 
....................  * Returns: 
....................  *       (none) 
....................  */ 
.................... //void *qsort(const void *base, size_t num, size_t width, 
.................... //              int (*compare)(const void *, const void *)); 
....................  
.................... //--------------------------------------------------------------------------- 
.................... // Integer arithmetic functions 
.................... //--------------------------------------------------------------------------- 
....................  
.................... #define labs abs 
....................  
.................... div_t div(signed int numer,signed int denom); 
.................... ldiv_t ldiv(signed long numer,signed long denom); 
....................  
.................... //--------------------------------------------------------------------------- 
.................... // Multibyte character functions 
.................... //--------------------------------------------------------------------------- 
....................  
.................... // Not supported 
....................  
.................... //--------------------------------------------------------------------------- 
.................... // Multibyte string functions 
.................... //--------------------------------------------------------------------------- 
....................  
.................... // Not supported 
....................  
....................  
.................... //--------------------------------------------------------------------------- 
.................... // Internal implementation 
.................... //--------------------------------------------------------------------------- 
....................  
.................... #include <stddef.h> 
.................... /////////////////////////////////////////////////////////////////////////// 
.................... ////        (C) Copyright 1996,2003 Custom Computer Services           //// 
.................... //// This source code may only be used by licensed users of the CCS C  //// 
.................... //// compiler.  This source code may only be distributed to other      //// 
.................... //// licensed users of the CCS C compiler.  No other use, reproduction //// 
.................... //// or distribution is permitted without written permission.          //// 
.................... //// Derivative programs created using this software in object code    //// 
.................... //// form are not restricted in any way.                               //// 
.................... /////////////////////////////////////////////////////////////////////////// 
....................  
.................... #ifndef _STDDEF 
....................  
.................... #define _STDDEF 
....................  
.................... #if sizeof(int *)==1 
.................... #define ptrdiff_t int 
.................... #else 
.................... #define ptrdiff_t long 
.................... #endif 
....................  
.................... #define size_t int 
.................... #define wchar_t char 
.................... #define NULL 0 
....................  
.................... #define offsetof(s,f) (offsetofbit(s,f)/8) 
....................  
.................... #endif 
....................  
.................... #include <string.h> 
.................... //////////////////////////////////////////////////////////////////////////// 
.................... ////        (C) Copyright 1996,2003 Custom Computer Services            //// 
.................... //// This source code may only be used by licensed users of the CCS C   //// 
.................... //// compiler.  This source code may only be distributed to other       //// 
.................... //// licensed users of the CCS C compiler.  No other use, reproduction  //// 
.................... //// or distribution is permitted without written permission.           //// 
.................... //// Derivative programs created using this software in object code     //// 
.................... //// form are not restricted in any way.                                //// 
.................... //////////////////////////////////////////////////////////////////////////// 
....................  
.................... #ifndef _STRING 
.................... #define _STRING 
.................... #include <stddef.h> 
.................... /////////////////////////////////////////////////////////////////////////// 
.................... ////        (C) Copyright 1996,2003 Custom Computer Services           //// 
.................... //// This source code may only be used by licensed users of the CCS C  //// 
.................... //// compiler.  This source code may only be distributed to other      //// 
.................... //// licensed users of the CCS C compiler.  No other use, reproduction //// 
.................... //// or distribution is permitted without written permission.          //// 
.................... //// Derivative programs created using this software in object code    //// 
.................... //// form are not restricted in any way.                               //// 
.................... /////////////////////////////////////////////////////////////////////////// 
....................  
.................... #ifndef _STDDEF 
....................  
.................... #define _STDDEF 
....................  
.................... #if sizeof(int *)==1 
.................... #define ptrdiff_t int 
.................... #else 
.................... #define ptrdiff_t long 
.................... #endif 
....................  
.................... #define size_t int 
.................... #define wchar_t char 
.................... #define NULL 0 
....................  
.................... #define offsetof(s,f) (offsetofbit(s,f)/8) 
....................  
.................... #endif 
....................  
.................... #include <ctype.h> 
.................... //////////////////////////////////////////////////////////////////////////// 
.................... ////        (C) Copyright 1996,2003 Custom Computer Services            //// 
.................... //// This source code may only be used by licensed users of the CCS C   //// 
.................... //// compiler.  This source code may only be distributed to other       //// 
.................... //// licensed users of the CCS C compiler.  No other use, reproduction  //// 
.................... //// or distribution is permitted without written permission.           //// 
.................... //// Derivative programs created using this software in object code     //// 
.................... //// form are not restricted in any way.                                //// 
.................... //////////////////////////////////////////////////////////////////////////// 
....................  
.................... #ifndef _CTYPE 
.................... #define _CTYPE 
....................  
.................... #define islower(x)  isamong(x,"abcdefghijklmnopqrstuvwxyz") 
.................... #define isupper(x)  isamong(x,"ABCDEFGHIJKLMNOPQRSTUVWXYZ") 
.................... #define isalnum(x)  isamong(x,"0123456789ABCDEFGHIJKLMNOPQRSTUVWXYZabcdefghijklmnopqrstuvwxyz") 
.................... #define isalpha(x)  isamong(x,"ABCDEFGHIJKLMNOPQRSTUVWXYZabcdefghijklmnopqrstuvwxyz") 
.................... #define isdigit(x)  isamong(x,"0123456789") 
.................... #define isspace(x)  ((x)==' ') 
.................... #define isxdigit(x) isamong(x,"0123456789ABCDEFabcdef") 
.................... #define iscntrl(x)  ((x)<' ') 
.................... #define isprint(x)  ((x)>=' ') 
.................... #define isgraph(x)  ((x)>' ') 
.................... #define ispunct(x)  (((x)>' ')&&!isalnum(x)) 
....................  
.................... #endif 
....................  
....................  
....................  
....................  
....................  
.................... ////////////////////////////////////////////// 
.................... //// Uncomment the following define to    //// 
.................... //// allow some functions to use a        //// 
.................... //// quicker algorithm, but use more ROM  //// 
.................... ////                                      //// 
.................... //// #define FASTER_BUT_MORE_ROM          //// 
.................... ////////////////////////////////////////////// 
....................  
....................  
....................  
.................... /*Copying functions*/ 
.................... /* standard template: 
....................    void *memmove(void *s1, void *s2, size_t n). 
....................    Copies max of n characters safely (not following ending '\0') 
....................    from s2 in s1; if s2 has less than n characters, appends 0 */ 
....................  
.................... char *memmove(void *s1,char *s2,size_t n) 
.................... { 
....................    char *sc1; 
....................    char *sc2; 
....................    sc1=s1; 
....................    sc2=s2; 
....................    if(sc2<sc1 && sc1 <sc2 +n) 
....................       for(sc1+=n,sc2+=n;0<n;--n) 
....................          *--sc1=*--sc2; 
....................    else 
....................       for(;0<n;--n) 
....................          *sc1++=*sc2++; 
....................   return s1; 
....................   } 
....................  
.................... /* compiler ignored the name 'strcpy()'; perhaps, it's reserved? 
....................    Standard template: char *strcpy(char *s1, const char *s2) 
....................    copies the string s2 including the null character to s1*/ 
....................  
.................... char *strcopy(char *s1, char *s2) 
.................... { 
....................   char *s; 
....................  
....................   for (s = s1; *s2 != 0; s++, s2++) { 
....................      *s = *s2; 
....................   } 
....................   *s = *s2; 
....................   return(s1); 
.................... } 
....................  
.................... /* standard template: 
....................    char *strncpy(char *s1, const char *s2, size_t n). 
....................    Copies max of n characters (not following ending '\0') 
....................    from s2 in s1; if s2 has less than n characters, appends 0 */ 
....................  
.................... char *strncpy(char *s1, char *s2, size_t n) 
.................... { 
....................   char *s; 
....................  
....................   for (s = s1; n > 0 && *s2 != '\0'; n--) 
....................      *s++ = *s2++; 
....................   for (; n > 0; n--) 
....................      *s++ = '\0'; 
....................  
....................   return(s1); 
.................... } 
.................... /***********************************************************/ 
....................  
.................... /*concatenation functions*/ 
.................... /* standard template: char *strcat(char *s1, const char *s2) 
.................... appends s2 to s1*/ 
....................  
.................... char *strcat(char *s1, char *s2) 
.................... { 
....................    char *s; 
....................  
....................    for (s = s1; *s != '\0'; ++s); 
....................    while(*s2 != '\0') 
....................    { 
....................       *s = *s2; 
....................       ++s; 
....................       ++s2; 
....................    } 
....................  
....................    *s = '\0'; 
....................    return(s1); 
.................... } 
.................... /* standard template: char *strncat(char *s1, char *s2,size_t n) 
.................... appends not more than n characters from s2 to s1*/ 
....................  
.................... char *strncat(char *s1, char *s2, size_t n) 
.................... { 
....................    char *s; 
....................  
....................    for (s = s1; *s != '\0'; ++s); 
....................    while(*s2 != '\0' && 0<n) 
....................    { 
....................       *s = *s2; 
....................       ++s; 
....................       ++s2; 
....................       --n; 
....................    } 
....................  
....................    *s = '\0'; 
....................    return(s1); 
.................... } 
....................  
.................... /***********************************************************/ 
....................  
....................  
.................... /*comparison functions*/ 
.................... /* standard template: signed int memcmp(void *s1, void *s2). 
....................    Compares s1 & s2; returns -1 if s1<s2, 0 if s1=s2, 1 if s1>s2 */ 
....................  
.................... signed int memcmp(void * s1,char *s2,size_t n) 
.................... { 
.................... char *su1, *su2; 
.................... for(su1=s1, su2=s2; 0<n; ++su1, ++su2, --n) 
.................... { 
....................    if(*su1!=*su2) 
....................       return ((*su1<*su2)?-1:+1); 
.................... } 
.................... return 0; 
.................... } 
....................  
.................... /* standard template: int strcmp(const char *s1, const char *s2). 
....................    Compares s1 & s2; returns -1 if s1<s2, 0 if s1=s2, 1 if s1>s2 */ 
....................  
.................... signed int strcmp(char *s1, char *s2) 
.................... { 
....................    for (; *s1 == *s2; s1++, s2++) 
....................       if (*s1 == '\0') 
....................          return(0); 
....................    return((*s1 < *s2) ? -1: 1); 
.................... } 
.................... /* standard template: int strcoll(const char *s1, const char *s2). 
....................    Compares s1 & s2; returns -1 if s1<s2, 0 if s1=s2, 1 if s1>s2 */ 
....................  
.................... signed int strcoll(char *s1, char *s2) 
.................... { 
....................    for (; *s1 == *s2; s1++, s2++) 
....................       if (*s1 == '\0') 
....................          return(0); 
....................    return((*s1 < *s2) ? -1: 1); 
.................... } 
....................  
.................... /* standard template: 
....................    int strncmp(const char *s1, const char *s2, size_t n). 
....................    Compares max of n characters (not following 0) from s1 to s2; 
....................    returns same as strcmp */ 
....................  
.................... signed int strncmp(char *s1, char *s2, size_t n) 
.................... { 
....................    for (; n > 0; s1++, s2++, n--) 
....................       if (*s1 != *s2) 
....................          return((*s1 <*s2) ? -1: 1); 
....................       else if (*s1 == '\0') 
....................          return(0); 
....................    return(0); 
.................... } 
.................... /* standard template: 
....................    int strxfrm(const char *s1, const char *s2, size_t n). 
....................    transforms maximum of n characters from s2 and places them into s1*/ 
.................... size_t strxfrm(char *s1, char *s2, size_t n) 
.................... { 
....................   char *s; 
....................   int n1; 
....................   n1=n; 
....................   for (s = s1; n > 0 && *s2 != '\0'; n--) 
....................      *s++ = *s2++; 
....................   for (; n > 0; n--) 
....................      *s++ = '\0'; 
....................  
....................   return(n1); 
.................... } 
....................  
....................  
....................  
....................  
....................  
.................... /***********************************************************/ 
.................... /*Search functions*/ 
.................... /* standard template: void *memchr(const char *s, int c). 
....................    Finds first occurrence of c in n characters of s */ 
....................  
.................... char *memchr(void *s,int c,size_t n) 
.................... { 
....................    char uc; 
....................    char *su; 
....................    uc=c; 
....................    for(su=s;0<n;++su,--n) 
....................       if(*su==uc) 
....................       return su; 
....................    return NULL; 
.................... } 
....................  
.................... /* standard template: char *strchr(const char *s, int c). 
....................    Finds first occurrence of c in s */ 
....................  
.................... char *strchr(char *s, int c) 
.................... { 
....................    for (; *s != c; s++) 
....................       if (*s == '\0') 
....................          return(0); 
....................    return(s); 
.................... } 
.................... /* standard template: 
....................    size_t strcspn(const char *s1, const char *s2). 
....................    Computes length of max initial segment of s1 that 
....................    consists entirely of characters NOT from s2*/ 
....................  
.................... int *strcspn(char *s1, char *s2) 
.................... { 
....................    char *sc1, *sc2; 
....................  
....................    for (sc1 = s1; *sc1 != 0; sc1++) 
....................       for (sc2 = s2; *sc2 != 0; sc2++) 
....................          if (*sc1 == *sc2) 
....................             return(sc1 - s1); 
....................    return(sc1 - s1); 
.................... } 
.................... /* standard template: 
....................    char *strpbrk(const char *s1, const char *s2). 
....................    Locates first occurence of any character from s2 in s1; 
....................    returns s1 if s2 is empty string */ 
....................  
.................... char *strpbrk(char *s1, char *s2) 
.................... { 
....................    char *sc1, *sc2; 
....................  
....................    for (sc1 = s1; *sc1 != 0; sc1++) 
....................       for (sc2 = s2; *sc2 != 0; sc2++) 
....................          if (*sc1 == *sc2) 
....................             return(sc1); 
....................    return(0); 
.................... } 
....................  
....................  
.................... /* standard template: char *strrchr(const char *s, int c). 
....................    Finds last occurrence of c in s */ 
....................  
.................... char *strrchr(char *s, int c) 
.................... { 
....................    char *p; 
....................  
....................    for (p = 0; ; s++) 
....................    { 
....................       if (*s == c) 
....................          p = s; 
....................       if (*s == '\0') 
....................          return(p); 
....................    } 
.................... } 
.................... /* computes length of max initial segment of s1 consisting 
....................    entirely of characters from s2 */ 
....................  
.................... int *strspn(char *s1, char *s2) 
.................... { 
....................    char *sc1, *sc2; 
....................  
....................    for (sc1 = s1; *sc1 != 0; sc1++) 
....................       for (sc2 = s2; ; sc2++) 
....................     if (*sc2 == '\0') 
....................        return(sc1 - s1); 
....................          else if (*sc1 == *sc2) 
....................             break; 
....................    return(sc1 - s1); 
.................... } 
.................... /* standard template: 
....................    char *strstr(const char *s1, const char *s2); 
....................    Locates first occurence of character sequence s2 in s1; 
....................    returns 0 if s2 is empty string 
....................  
....................    Uncomment #define FASTER_BUT_MORE_ROM at the top of the 
....................    file to use the faster algorithm */ 
.................... char *strstr(char *s1, char *s2) 
.................... { 
....................    char *s, *t; 
....................  
....................    #ifdef FASTER_BUT_MORE_ROM 
....................    if (*s2 == '\0') 
....................          return(s1); 
....................    #endif 
....................  
....................    while (*s1) 
....................    { 
....................       for(s = s1, t = s2; *t && (*s == *t); ++s, ++t); 
....................  
....................       if (*t == '\0') 
....................          return s1; 
....................       ++s1; 
....................       #ifdef FASTER_BUT_MORE_ROM 
....................          while(*s1 != '\0' && *s1 != *s2) 
....................             ++s1; 
....................       #endif 
....................    } 
....................    return 0; 
.................... } 
....................  
.................... /* standard template: char *strtok(char *s1, const char *s2). 
....................  
....................    Finds next token in s1 delimited by a character from separator 
....................    string s2 (which can be different from call to call).  First call 
....................    starts at beginning of s1 searching for first character NOT 
....................    contained in s2; returns 0 if none is found. 
....................    If one is found, it is the start of first token (return value). 
....................    Function then searches from there for a character contained in s2. 
....................    If none is found, current token extends to end of s1, and subsequent 
....................    searches for a token will return 0.  If one is found, it is 
....................    overwritten by '\0', which terminates current token.  Function saves 
....................    pointer to following character from which next search will start. 
....................    Each subsequent call, with 0 as first argument, starts searching 
....................    from saved pointer */ 
....................  
.................... char *strtok(char *s1, char *s2) 
.................... { 
....................    char *beg, *end; 
....................    static char *save; 
....................  
....................    beg = (s1)? s1: save; 
....................    beg += strspn(beg, s2); 
....................    if (*beg == '\0') 
....................    { 
....................       *save = ' '; 
....................       return(0); 
....................    } 
....................    end = strpbrk(beg, s2); 
....................    if (*end != '\0') 
....................    { 
....................       *end = '\0'; 
....................       end++; 
....................    } 
....................    save = end; 
....................    return(beg); 
.................... } 
....................  
.................... /*****************************************************************/ 
.................... /*Miscellaneous functions*/ 
.................... /* standard template 
.................... maps error number in errnum to an error message string 
.................... Returns: Pointer to string 
.................... */ 
.................... #ifdef _ERRNO 
.................... char * strerror(int errnum) 
.................... { 
.................... char s[15]; 
.................... switch( errnum) 
.................... { 
.................... case 0: 
....................    strcpy(s,"no errors"); 
....................    return s; 
.................... case EDOM : 
....................    strcpy(s,"domain error"); 
....................    return s; 
.................... case ERANGE: 
....................    strcpy(s,"range error"); 
....................    return s; 
.................... } 
.................... } 
.................... #ENDIF 
.................... /* standard template: size_t strlen(const char *s). 
....................    Computes length of s1 (preceding terminating 0) */ 
....................  
.................... int *strlen(char *s) 
.................... { 
....................    char *sc; 
....................  
....................    for (sc = s; *sc != 0; sc++); 
....................    return(sc - s); 
.................... } 
....................  
.................... /* standard template: size_t stricmp(const char *s1, const char *s2). 
....................    Compares s1 to s2 ignoring case (upper vs. lower) */ 
....................  
.................... signed int stricmp(char *s1, char *s2) 
.................... { 
....................  for(; *s1==*s2||(isalpha(*s1)&&isalpha(*s2)&&(*s1==*s2+32||*s2==*s1+32)); 
....................     s1++, s2++) 
....................     if (*s1 == '\0') 
....................        return(0); 
....................  return((*s1 < *s2) ? -1: 1); 
.................... } 
....................  
....................  
.................... /* standard template: char *strlwr(char *s). 
....................    Replaces uppercase letters by lowercase; 
....................    returns pointer to new string s */ 
....................  
.................... char *strlwr(char *s) 
.................... { 
....................    char *p; 
....................  
....................    for (p = s; *p != '\0'; p++) 
....................       if (*p >= 'A' && *p <='Z') 
....................          *p += 'a' - 'A'; 
....................    return(s); 
.................... } 
....................  
....................  
.................... /************************************************************/ 
....................  
....................  
.................... #endif 
....................  
....................  
.................... div_t div(signed int numer,signed int denom) 
.................... { 
....................    div_t val; 
....................    val.quot = numer / denom; 
....................    val.rem = numer - (denom * val.quot); 
....................    return (val); 
.................... } 
....................  
.................... ldiv_t ldiv(signed long numer,signed long denom) 
.................... { 
....................    ldiv_t val; 
....................    val.quot = numer / denom; 
....................    val.rem = numer - (denom * val.quot); 
....................    return (val); 
.................... } 
....................  
.................... float atof(char * s) 
.................... { 
....................    float pow10 = 1.0; 
....................    float result = 0.0; 
....................    int sign = 0; 
....................    char c; 
....................    int ptr = 0; 
....................  
....................    c = s[ptr++]; 
....................  
....................    if ((c>='0' && c<='9') || c=='+' || c=='-' || c=='.') { 
....................       if(c == '-') { 
....................          sign = 1; 
....................          c = s[ptr++]; 
....................       } 
....................       if(c == '+') 
....................          c = s[ptr++]; 
....................  
....................       while((c >= '0' && c <= '9')) { 
....................          result = 10*result + c - '0'; 
....................          c = s[ptr++]; 
....................       } 
....................  
....................       if (c == '.') { 
....................          c = s[ptr++]; 
....................          while((c >= '0' && c <= '9')) { 
....................              pow10 = pow10*10; 
....................              result += (c - '0')/pow10; 
....................              c = s[ptr++]; 
....................          } 
....................       } 
....................  
....................    } 
....................  
....................    if (sign == 1) 
....................       result = -1*result; 
....................    return(result); 
.................... } 
....................  
.................... float atoe(char * s) 
.................... { 
....................    float pow10 = 1.0; 
....................    float result = 0.0; 
....................    int sign = 0; 
....................    int expsign = 0; 
....................    char c; 
....................    int ptr = 0; 
....................    int i; 
....................    float exp = 1.0; 
....................    int expcnt = 0; 
....................  
....................    c = s[ptr++]; 
....................  
....................    if ((c>='0' && c<='9') || c=='+' || c=='-' || c=='.' || c=='E' || c=='e') { 
....................       if(c == '-') { 
....................          sign = 1; 
....................          c = s[ptr++]; 
....................       } 
....................       if(c == '+') 
....................          c = s[ptr++]; 
....................  
....................       while((c >= '0' && c <= '9')) { 
....................          result = 10*result + c - '0'; 
....................          c = s[ptr++]; 
....................       } 
....................  
....................       if (c == '.') { 
....................          c = s[ptr++]; 
....................          while((c >= '0' && c <= '9')) { 
....................              pow10 = pow10*10; 
....................              result += (c - '0')/pow10; 
....................              c = s[ptr++]; 
....................          } 
....................       } 
....................  
....................       // Handling the exponent 
....................       if (c=='e' || c=='E') { 
....................          c = s[ptr++]; 
....................  
....................          if(c == '-') { 
....................             expsign = 1; 
....................             c = s[ptr++]; 
....................          } 
....................          if(c == '+') 
....................             c = s[ptr++]; 
....................  
....................          while((c >= '0' && c <= '9')) { 
....................             expcnt = 10*expcnt + c - '0'; 
....................             c = s[ptr++]; 
....................          } 
....................  
....................          for(i=0;i<expcnt;i++) 
....................             exp*=10; 
....................  
....................          if(expsign==1) 
....................             result/=exp; 
....................          else 
....................             result*=exp; 
....................       } 
....................    } 
....................  
....................    if (sign == 1) 
....................       result = -1*result; 
....................    return(result); 
.................... } 
....................  
.................... signed int atoi(char *s) 
.................... { 
....................    signed int result; 
....................    int sign, base, index; 
....................    char c; 
....................  
....................    index = 0; 
....................    sign = 0; 
....................    base = 10; 
....................    result = 0; 
....................  
....................    if (!s) 
....................       return 0; 
....................    // Omit all preceeding alpha characters 
....................    c = s[index++]; 
....................  
....................    // increase index if either positive or negative sign is detected 
....................    if (c == '-') 
....................    { 
....................       sign = 1;         // Set the sign to negative 
....................       c = s[index++]; 
....................    } 
....................    else if (c == '+') 
....................    { 
....................       c = s[index++]; 
....................    } 
....................  
....................    if (c >= '0' && c <= '9') 
....................    { 
....................  
....................       // Check for hexa number 
....................       if (c == '0' && (s[index] == 'x' || s[index] == 'X')) 
....................       { 
....................          base = 16; 
....................          index++; 
....................          c = s[index++]; 
....................       } 
....................  
....................       // The number is a decimal number 
....................       if (base == 10) 
....................       { 
....................          while (c >= '0' && c <= '9') 
....................          { 
....................             result = 10*result + (c - '0'); 
....................             c = s[index++]; 
....................          } 
....................       } 
....................       else if (base == 16)    // The number is a hexa number 
....................       { 
....................          c = toupper(c); 
....................          while ( (c >= '0' && c <= '9') || (c >= 'A' && c<='F')) 
....................          { 
....................             if (c >= '0' && c <= '9') 
....................                result = (result << 4) + (c - '0'); 
....................             else 
....................                result = (result << 4) + (c - 'A' + 10); 
....................  
....................             c = s[index++]; 
....................             c = toupper(c); 
....................          } 
....................       } 
....................    } 
....................  
....................    if (sign == 1 && base == 10) 
....................        result = -result; 
....................  
....................    return(result); 
.................... } 
....................  
.................... signed long atol(char *s) 
.................... { 
....................    signed long result; 
....................    int sign, base, index; 
....................    char c; 
....................  
....................    index = 0; 
....................    sign = 0; 
....................    base = 10; 
....................    result = 0; 
....................  
....................    if (!s) 
....................       return 0; 
....................    c = s[index++]; 
....................  
....................    // increase index if either positive or negative sign is detected 
....................    if (c == '-') 
....................    { 
....................       sign = 1;         // Set the sign to negative 
....................       c = s[index++]; 
....................    } 
....................    else if (c == '+') 
....................    { 
....................       c = s[index++]; 
....................    } 
....................  
....................    if (c >= '0' && c <= '9') 
....................    { 
....................       if (c == '0' && (s[index] == 'x' || s[index] == 'X')) 
....................       { 
....................          base = 16; 
....................          index++; 
....................          c = s[index++]; 
....................       } 
....................  
....................       // The number is a decimal number 
....................       if (base == 10) 
....................       { 
....................          while (c >= '0' && c <= '9') 
....................          { 
....................             result = 10*result + (c - '0'); 
....................             c = s[index++]; 
....................          } 
....................       } 
....................       else if (base == 16)    // The number is a hexa number 
....................       { 
....................          c = toupper(c); 
....................          while ( (c >= '0' && c <= '9') || (c >= 'A' && c <='F')) 
....................          { 
....................             if (c >= '0' && c <= '9') 
....................                result = (result << 4) + (c - '0'); 
....................             else 
....................                result = (result << 4) + (c - 'A' + 10); 
....................  
....................             c = s[index++];c = toupper(c); 
....................          } 
....................       } 
....................    } 
....................  
....................    if (base == 10 && sign == 1) 
....................       result = -result; 
....................  
....................    return(result); 
.................... } 
....................  
.................... /* A fast routine to multiply by 10 
....................  */ 
.................... signed int32 mult_with10(int32 num) 
.................... { 
....................    return ( (num << 1) + (num << 3) ); 
.................... } 
....................  
.................... signed int32 atoi32(char *s) 
.................... { 
....................    signed int32 result; 
....................    int sign, base, index; 
....................    char c; 
....................  
....................    index = 0; 
....................    sign = 0; 
....................    base = 10; 
....................    result = 0; 
....................  
....................    if (!s) 
....................       return 0; 
....................    c = s[index++]; 
....................  
....................    // increase index if either positive or negative sign is detected 
....................    if (c == '-') 
....................    { 
....................       sign = 1;         // Set the sign to negative 
....................       c = s[index++]; 
....................    } 
....................    else if (c == '+') 
....................    { 
....................       c = s[index++]; 
....................    } 
....................  
....................    if (c >= '0' && c <= '9') 
....................    { 
....................       if (c == '0' && (s[index] == 'x' || s[index] == 'X')) 
....................       { 
....................          base = 16; 
....................          index++; 
....................          c = s[index++]; 
....................       } 
....................  
....................       // The number is a decimal number 
....................       if (base == 10) 
....................       { 
....................          while (c >= '0' && c <= '9') { 
....................             result = (result << 1) + (result << 3);  // result *= 10; 
....................             result += (c - '0'); 
....................             c = s[index++]; 
....................          } 
....................       } 
....................       else if (base == 16)    // The number is a hexa number 
....................       { 
....................          c = toupper(c); 
....................          while ((c >= '0' && c <= '9') || (c >= 'A' && c <='F')) 
....................          { 
....................             if (c >= '0' && c <= '9') 
....................                result = (result << 4) + (c - '0'); 
....................             else 
....................                result = (result << 4) + (c - 'A' + 10); 
....................  
....................             c = s[index++];c = toupper(c); 
....................          } 
....................       } 
....................    } 
....................  
....................    if (base == 10 && sign == 1) 
....................       result = -result; 
....................  
....................    return(result); 
.................... } 
....................  
.................... char * itoa(signed int32 num, int8 base, char *s) 
.................... { 
....................      int32 temp=1; 
....................      int8 i,sign=0,cnt=0; 
....................      char c; 
....................  
....................      if(num<0) { 
....................          sign=1;        // Check for negative number 
....................          num*=-1; 
....................      } 
....................  
....................      while(temp>0) { 
....................          temp=(num/base); 
....................          s[cnt]=(num%base)+'0';    // Conversion 
....................  
....................          if(s[cnt]>0x39) 
....................             s[cnt]+=0x7; 
....................  
....................          cnt++; 
....................          num=temp; 
....................      } 
....................  
....................      if(sign==1) { 
....................          s[cnt]=0x2D;      // Negative sign 
....................          cnt++; 
....................      } 
....................  
....................      for(i = 0;i<(int8)(cnt/2);i++) { 
....................  
....................          c=s[i]; 
....................          s[i]=s[cnt-i-1];        // Reverse the number 
....................          s[cnt-i-1]=c; 
....................      } 
....................      s[cnt]='\0';     // End the string 
....................      return s; 
.................... } 
....................  
.................... float strtod(char *s,char *endptr) { 
....................    float pow10 = 1.0; 
....................    float result = 0.0; 
....................    int sign = 0, point = 0; 
....................    char c; 
....................    int ptr = 0; 
....................  
....................    if (!s) 
....................       return 0; 
....................    c=s[ptr++]; 
....................  
....................  
....................    while((c>='0' && c<='9') || c=='+' || c=='-' || c=='.') { 
....................       if(c == '-') { 
....................          sign = 1; 
....................          c = s[ptr++]; 
....................       } 
....................  
....................       while((c >= '0' && c <= '9') && point == 0) { 
....................          result = 10*result + c - '0'; 
....................          c = s[ptr++]; 
....................       } 
....................  
....................       if (c == '.') { 
....................          point = 1; 
....................          c = s[ptr++]; 
....................       } 
....................  
....................       while((c >= '0' && c <= '9') && point == 1) { 
....................          pow10 = pow10*10; 
....................          result += (c - '0')/pow10; 
....................          c = s[ptr++]; 
....................       } 
....................  
....................       if (c == '+') { 
....................          c = s[ptr++]; 
....................       } 
....................    } 
....................  
....................    if (sign == 1) 
....................       result = -1*result; 
....................    if(endptr) 
....................    { 
....................       if (ptr) { 
....................          ptr--; 
....................        #IF LONG_POINTERS  
....................          *((long *)endptr)= s+ptr;  
....................        #ELSE 
....................          *((char *)endptr)=s+ptr; 
....................        #ENDIF 
....................       } 
....................       else 
....................       { 
....................       #IF LONG_POINTERS 
....................       *((long *)endptr)= s;  
....................       #ELSE 
....................       *((char *)endptr)=s; 
....................       #ENDIF 
....................       } 
....................    } 
....................  
....................    return(result); 
.................... } 
....................  
.................... long strtoul(char *s,char *endptr,signed int base) 
.................... { 
....................    char *sc,*s1,*sd; 
....................    unsigned long x=0; 
....................    char sign; 
....................    char digits[]="0123456789abcdefghijklmnopqstuvwxyz"; 
....................    for(sc=s;isspace(*sc);++sc); 
....................    sign=*sc=='-'||*sc=='+'?*sc++:'+'; 
....................    if(sign=='-' || base <0 || base ==1|| base >36) // invalid base 
....................    goto StrtoulGO; 
....................  
....................    else if (base) 
....................    { 
....................       if(base==16 && *sc =='0'&&(sc[1]=='x' || sc[1]=='X')) 
....................          sc+=2; 
....................       if(base==8 && *sc =='0') 
....................          sc+=1; 
....................       if(base==2 && *sc =='0'&&sc[1]=='b') 
....................          sc+=2; 
....................  
....................    } 
....................    else if(*sc!='0') // base is 0, find base 
....................       base=10; 
....................    else if (sc[1]=='x' || sc[1]=='X') 
....................       base =16,sc+=2; 
....................    else if(sc[1]=='b') 
....................       base=2,sc+=2; 
....................    else 
....................       base=8; 
....................    for (s1=sc;*sc=='0';++sc);// skip leading zeroes 
....................    sd=memchr(digits,tolower(*sc),base); 
....................    for(; sd!=0; ) 
....................    { 
....................       x=x*base+(int16)(sd-digits); 
....................       ++sc; 
....................       sd=memchr(digits,tolower(*sc),base); 
....................    } 
....................    if(s1==sc) 
....................    { 
....................    StrtoulGO: 
....................       if (endptr) 
....................       { 
....................          #IF LONG_POINTERS 
....................          *((long *)endptr)= s;  
....................          #ELSE 
....................          *((char *)endptr)=s; 
....................          #ENDIF 
....................          } 
....................    return 0; 
....................    } 
....................    if (endptr) 
....................    { 
....................          #IF LONG_POINTERS 
....................          *((long *)endptr)= sc;  
....................          #ELSE 
....................          *((char *)endptr)=sc;  
....................          #ENDIF 
....................    } 
....................    return x; 
.................... } 
....................  
....................  
.................... signed long strtol(char *s,char *endptr,signed int base) 
.................... { 
....................    char *sc,*s1,*sd; 
....................    signed long x=0; 
....................    char sign; 
....................    char digits[]="0123456789abcdefghijklmnopqstuvwxyz"; 
....................    for(sc=s;isspace(*sc);++sc); 
....................    sign=*sc=='-'||*sc=='+'?*sc++:'+'; 
....................    if (base <0 || base ==1|| base >36) // invalid base 
....................    goto StrtolGO; 
....................    else if (base) 
....................    { 
....................       if(base==16 && *sc =='0'&&(sc[1]=='x' || sc[1]=='X')) 
....................          sc+=2; 
....................       if(base==8 && *sc =='0') 
....................          sc+=1; 
....................       if(base==2 && *sc =='0'&&sc[1]=='b') 
....................          sc+=2; 
....................  
....................    } 
....................    else if(*sc!='0') // base is 0, find base 
....................       base=10; 
....................    else if (sc[1]=='x' || sc[1]=='X') 
....................       base =16,sc+=2; 
....................    else if(sc[1]=='b') 
....................       base=2,sc+=2; 
....................    else 
....................       base=8; 
....................    for (s1=sc;*sc=='0';++sc);// skip leading zeroes 
....................  
....................    sd=memchr(digits,tolower(*sc),base); 
....................    for(;sd!=0;) 
....................    { 
....................       x=x*base+(int16)(sd-digits); 
....................       ++sc; 
....................       sd=memchr(digits,tolower(*sc),base); 
....................    } 
....................    if(s1==sc) 
....................    { 
....................    StrtolGO: 
....................       if (endptr) 
....................       { 
....................          #IF LONG_POINTERS 
....................          *((long *)endptr)= s;  
....................          #ELSE 
....................          *((char *)endptr)=s; 
....................          #ENDIF 
....................       } 
....................    return 0; 
....................    } 
....................    if(sign=='-') 
....................       x  =-x; 
....................    if (endptr) 
....................    { 
....................         #IF LONG_POINTERS 
....................          *((long *)endptr)= sc;  
....................         #ELSE 
....................         *((char *)endptr)=sc; 
....................         #ENDIF 
....................    } 
....................    return x; 
.................... } 
....................  
.................... signed int system(char *string) 
.................... { 
....................    return 0; 
.................... } 
....................  
.................... int mblen(char *s,size_t n) 
.................... { 
....................    return strlen(s); 
.................... } 
....................  
.................... int mbtowc(wchar_t *pwc,char *s,size_t n) 
.................... { 
....................    *pwc=*s; 
....................    return 1; 
.................... } 
....................  
.................... int wctomb(char *s,wchar_t wchar) 
.................... { 
....................    *s=wchar; 
....................    return 1; 
.................... } 
....................  
.................... size_t mbstowcs(wchar_t *pwcs,char *s,size_t n) 
.................... { 
....................    strncpy(pwcs,s,n); 
....................    return strlen(pwcs); 
.................... } 
....................  
.................... size_t wcstombs(char *s,wchar_t *pwcs,size_t n) 
.................... { 
....................    strncpy(s,pwcs,n); 
....................    return strlen(s); 
.................... } 
....................  
.................... //--------------------------------------------------------------------------- 
.................... // The random number implementation 
.................... //--------------------------------------------------------------------------- 
....................  
.................... unsigned int32 _Randseed; 
....................  
.................... long rand(void) 
.................... { 
....................    _Randseed = _Randseed * 1103515245 + 12345; 
....................    return ((unsigned long)(_Randseed >> 16) % RAND_MAX); 
.................... } 
....................  
.................... void srand(unsigned int32 seed) 
.................... { 
....................    _Randseed = seed; 
.................... } 
....................  
.................... //--------------------------------------------------------------------------- 
.................... // Searching and sorting utilities implementation 
.................... //--------------------------------------------------------------------------- 
....................  
.................... typedef signed int (*_Cmpfun)(char * p1,char * p2); 
....................  
.................... void qsort(char * qdata, int qitems, int qsize, _Cmpfun cmp) { 
....................    int m,j,i,l; 
....................    short done; 
....................    BYTE t[16]; 
....................  
....................    m = qitems/2; 
....................    while( m > 0 ) { 
....................      for(j=0; j<(qitems-m); ++j) { 
....................         i = j; 
....................         do 
....................         { 
....................            done=TRUE; 
....................            l = i+m; 
....................            if( (*cmp)(qdata+i*qsize, qdata+l*qsize) > 0 ) { 
....................               memcpy(t, qdata+i*qsize, qsize); 
....................               memcpy(qdata+i*qsize, qdata+l*qsize, qsize); 
....................               memcpy(qdata+l*qsize, t, qsize); 
....................               if(m <= i) 
....................                 i -= m; 
....................                 done = FALSE; 
....................            } 
....................         } while(!done); 
....................      } 
....................      m = m/2; 
....................    } 
.................... } 
....................  
....................  
.................... char *bsearch(char *key, char *base, size_t num, size_t width,_Cmpfun cmp) 
.................... { 
....................    char *p, *q; 
....................    size_t n; 
....................    size_t pivot; 
....................    signed int val; 
....................  
....................    p = base; 
....................    n = num; 
....................  
....................    while (n > 0) 
....................    { 
....................       pivot = n >> 1; 
....................       q = p + width * pivot; 
....................  
....................       val = (*cmp)(key, q); 
....................  
....................       if (val < 0) 
....................          n = pivot; 
....................       else if (val == 0) 
....................          return ((char *)q); 
....................       else { 
....................          p = q + width; 
....................          n -= pivot + 1; 
....................       } 
....................    } 
....................  
....................    return NULL;      // There's no match 
.................... } 
....................  
....................  
.................... #endif 
....................  
....................  
.................... // In usb.c/h - tells the CCS PIC USB firmware to include HID handling code. 
.................... #DEFINE USB_HID_DEVICE  TRUE 
.................... #define USB_EP1_TX_ENABLE  USB_ENABLE_INTERRUPT   //turn on EP1 for IN bulk/interrupt transfers 
.................... #define USB_EP1_TX_SIZE    64  //allocate 64 bytes in the hardware for transmission    
....................  
.................... #define USB_EP1_RX_ENABLE  USB_ENABLE_INTERRUPT   //turn on EP1 for OUT bulk/interrupt transfers 
.................... #define USB_EP1_RX_SIZE    64    // allocate 64 bytes in the hardware for reception    
....................  
.................... #include <pic18_usb.h>            // Microchip 18Fxx5x hardware layer for usb.c 
.................... ///////////////////////////////////////////////////////////////////////// 
.................... ////                          pic18_usb.c                            //// 
.................... ////                                                                 //// 
.................... ////  Microchip PIC18Fxx5x Hardware layer for CCS's PIC USB driver   //// 
.................... ////                                                                 //// 
.................... //// This file is part of CCS's PIC USB driver code, which includes: //// 
.................... ////   usb_desc_*.h - an example set of config and device descriptor //// 
.................... ////   usb.c - USB token and request handler code                    //// 
.................... ////   usb.h - definitions, prototypes and global variables          //// 
.................... ////                                                                 //// 
.................... //// The following examples are provided by CCS:                     //// 
.................... ////   ex_usb_mouse.c - A HID Mouse.                                 //// 
.................... ////   ex_usb_hid.c - A custom application using HID protocol.       //// 
.................... ////   ex_usb_kbmouse.c - A HID Mouse/Keyboard combo using multiple  //// 
.................... ////                      interfaces.                                //// 
.................... ////   ex_usb_kbmouse.c - A HID Mouse/Keyboard combo using multiple  //// 
.................... ////                      HID Reports.                               //// 
.................... ////   ex_usb_scope.c - A digital oscilloscope using a custom        //// 
.................... ////                    protocol requiring custom Windows drivers.   //// 
.................... ////                                                                 //// 
.................... ////   *************************  NOTE  **************************   //// 
.................... ////  If you are not using internal pullups, you will need to put    //// 
.................... ////  an internal pullup resistor on C4 or C5 depending on if you    //// 
.................... ////  want to use slow speed or full speed.  This code configures    //// 
.................... ////  the device to use internal pullups, see usb_init() if you      //// 
.................... ////  want to change that.                                           //// 
.................... ////                                                                 //// 
.................... ////  You need approximately 470nF cap on C3, even if you are using  //// 
.................... ////  the internal 3.3V USB regulator.                               //// 
.................... ////                                                                 //// 
.................... ////  To run at full speed, you must use the oscillator              //// 
.................... ////  configuration (PLLx) to set the PLL divide to 4MHz.  You can   //// 
.................... ////  configure the MCU clock to any speed (up to 48MHz) but the     //// 
.................... ////  PLL must run at 4Mhz to provide the USB peripheral with a      //// 
.................... ////  96MHz clock.  See the datasheet for details.                   //// 
.................... ////                                                                 //// 
.................... ////  To run at slow speed you must configure your MCU to run at     //// 
.................... ////  24Mhz.  See the datasheet for details.                         //// 
.................... ////                                                                 //// 
.................... ////   *************************  NOTE  **************************   //// 
.................... //// This driver uses INT_USB.  It requires INT_USB to interrupt the //// 
.................... //// PIC when an event has happened on the USB Bus.  Therfore        //// 
.................... //// this code enables interrupts.  A user modification can be made  //// 
.................... //// to poll the USB interrupt flag instead of relying on an         //// 
.................... //// interrupt.                                                      //// 
.................... ////                                                                 //// 
.................... ////    ****************   USER FUNCTIONS  ***********************   //// 
.................... ////                                                                 //// 
.................... //// usb_init() - Initializes the USB stack, the USB peripheral and  //// 
.................... ////              attaches the unit to the usb bus.  Enables         //// 
.................... ////              interrupts.                                        //// 
.................... ////                                                                 //// 
.................... //// usb_init_cs() - A smaller usb_init(), does not attach unit      //// 
.................... ////              to usb bus or enable interrupts.                   //// 
.................... ////                                                                 //// 
.................... //// usb_put_packet() - Sends one packet to the host.                //// 
.................... ////                    If you need to send a message that spans     //// 
.................... ////                    more than one packet then see usb_puts() in  //// 
.................... ////                    usb.c                                        //// 
.................... ////                                                                 //// 
.................... //// usb_kbhit() - Returns true if OUT endpoint contains data from   //// 
.................... ////               host.                                             //// 
.................... ////                                                                 //// 
.................... //// usb_rx_packet_size() - Returns the size of packet that was      //// 
.................... ////               received.  usb_kbhit() must return TRUE else      //// 
.................... ////               this is not valid.  Don't forget in USB there     //// 
.................... ////               are 0 len packets!                                //// 
.................... ////                                                                 //// 
.................... //// usb_get_packet() - Gets one packet that from the host.          //// 
.................... ////                    usb_kbhit() must return true before you call //// 
.................... ////                    this routine or your data may not be valid.  //// 
.................... ////                    Once usb_kbhit() returns true you want to    //// 
.................... ////                    call this as soon as possible to get data    //// 
.................... ////                    out of the endpoint buffer so the PC can     //// 
.................... ////                    start sending more data, if needed.          //// 
.................... ////                    This only receives one packet, if you are    //// 
.................... ////                    trying to receive a multi-packet message     //// 
.................... ////                    see usb_gets() in usb.c.                     //// 
.................... ////                                                                 //// 
.................... //// usb_detach() - De-attach USB from the system.                   //// 
.................... ////                                                                 //// 
.................... //// usb_attach() - Attach USB to the system.                        //// 
.................... ////                                                                 //// 
.................... //// usb_attached() - Returns TRUE if the device is attached to a    //// 
.................... ////                  USB cable.  A macro that looks at the defined  //// 
.................... ////                  connection sense pin.                          //// 
.................... ////                                                                 //// 
.................... //// usb_task() - Keeps track of connection sense, calling           //// 
.................... ////              usb_detach() and usb_attach() when needed.         //// 
.................... ////                                                                 //// 
.................... //// For more documentation on these functions read the comments at  //// 
.................... //// each function.                                                  //// 
.................... ////                                                                 //// 
.................... //// The other functions defined in this file are for use by the     //// 
.................... //// USB code, and is not meant to be used by the user.              //// 
.................... ////                                                                 //// 
.................... ///////////////////////////////////////////////////////////////////////// 
.................... ////                                                                 //// 
.................... //// Version History:                                                //// 
.................... ////                                                                 //// 
.................... ////   11-01-05: usb_detach(), usb_attach() and usb_init_cs()        //// 
.................... ////               changed for the better.                           //// 
.................... ////                                                                 //// 
.................... ////   10-28-05: Added usb_rx_packet_size()                          //// 
.................... ////                                                                 //// 
.................... ////   07-13-05: usb_put_packet() changed for 16bit packet sizes     //// 
.................... ////             usb_flush_in() changed for 16bit packet sizes       //// 
.................... ////             usb_get_packet() changed for 16bit packet sizes     //// 
.................... ////             usb_flush_out() changed for 16bit packet sizes      //// 
.................... ////             usb_set_configured() changed for 16bit packet sizes //// 
.................... ////                                                                 //// 
.................... ////   06-30-05: usb_tbe() added                                     //// 
.................... ////             The way endpoint 0 DTS is set has been changed.     //// 
.................... ////                                                                 //// 
.................... ////   06-20-05: Initial Release                                     //// 
.................... ////                                                                 //// 
.................... ////   05-13-05: Beta Release (Full Speed works)                     //// 
.................... ////                                                                 //// 
.................... ////   03-21-05: Initial Alpha Release                               //// 
.................... ////                                                                 //// 
.................... ///////////////////////////////////////////////////////////////////////// 
.................... ////        (C) Copyright 1996,2005 Custom Computer Services         //// 
.................... //// This source code may only be used by licensed users of the CCS  //// 
.................... //// C compiler.  This source code may only be distributed to other  //// 
.................... //// licensed users of the CCS C compiler.  No other use,            //// 
.................... //// reproduction or distribution is permitted without written       //// 
.................... //// permission.  Derivative programs created using this software    //// 
.................... //// in object code form are not restricted in any way.              //// 
.................... ///////////////////////////////////////////////////////////////////////// 
....................  
.................... #IFNDEF __USB_HARDWARE__ 
.................... #DEFINE __USB_HARDWARE__ 
....................  
.................... //let the USB Stack know that we are using a PIC with internal USB peripheral 
.................... #DEFINE __PIC__   1 
....................  
.................... #ifndef USB_USE_FULL_SPEED 
....................  #define USB_USE_FULL_SPEED   TRUE 
.................... #endif 
....................  
.................... #ifndef USB_CON_SENSE_PIN 
.................... #define USB_CON_SENSE_PIN  0 
.................... #endif 
....................  
.................... #if USB_USE_FULL_SPEED==FALSE 
....................  //slow speed requires 8byte max packet size for endpoint 0 
....................  #DEFINE USB_MAX_EP0_PACKET_LENGTH   8 
.................... #else 
....................  //for full speed you can still use 8bytes, but 64 will be faster 
....................  #DEFINE USB_MAX_EP0_PACKET_LENGTH   64 
.................... #endif 
....................  
.................... #INCLUDE <usb.h> 
.................... /////////////////////////////////////////////////////////////////////////// 
.................... ////                              usb.h                                //// 
.................... ////                                                                   //// 
.................... //// Function protypes, defintions and globals used by CCS USB driver  //// 
.................... ////                                                                   //// 
.................... //// This file is part of CCS's PIC USB driver code, which includes:   //// 
.................... ////   usb_desc_*.h - an example set of config and device descriptor   //// 
.................... ////   usb.c - USB token and request handler code                      //// 
.................... ////   usb.h - definitions, prototypes and global variables            //// 
.................... ////                                                                   //// 
.................... //// The following examples are provided by CCS:                       //// 
.................... ////   ex_usb_mouse.c - A HID Mouse.                                   //// 
.................... ////   ex_usb_hid.c - A custom application using HID protocol.         //// 
.................... ////   ex_usb_kbmouse.c - A HID Mouse/Keyboard combo using multiple    //// 
.................... ////                      interfaces.                                  //// 
.................... ////   ex_usb_kbmouse.c - A HID Mouse/Keyboard combo using multiple    //// 
.................... ////                      HID Reports.                                 //// 
.................... ////   ex_usb_scope.c - A digital oscilloscope using a custom          //// 
.................... ////                    protocol requiring custom Windows drivers.     //// 
.................... ////                                                                   //// 
.................... ////                   **** DEFINITIONS *****                          //// 
.................... //// The following definitions are declared here, but can be           //// 
.................... //// overwritten in your code.  Unless needed otherwise, leave         //// 
.................... //// to default value.  If confused about a definition read the        //// 
.................... //// comments at each defintion                                        //// 
.................... ////                                                                   //// 
.................... //// USB_HID_IDLE (FALSE) - Set to TRUE if your device supports        //// 
.................... ////                            Set_Idle HID class request.  Set to    //// 
.................... ////                            False if you do not (device will       //// 
.................... ////                            send a Wrong-state if computer         //// 
.................... ////                            sends a Set_Idle / Get_Idle command)   //// 
.................... ////                            NOTE: If you set to TRUE you must      //// 
.................... ////                            provide your own code.  See            //// 
.................... ////                            usb_isr_tkn_setup_ClassInterface() in  //// 
.................... ////                            usb.c                                  //// 
.................... ////                                                                   //// 
.................... //// USB_HID_BOOT_PROTOCOL (FALSE) - Set to TRUE if your device supports   //// 
.................... ////                            Set_Protocl HID class request. Set to  //// 
.................... ////                            False if you do not (device will       //// 
.................... ////                            send a Wrong-state if computer         //// 
.................... ////                            sends a Set_Protocl / Get_Protocol     //// 
.................... ////                            command).                              //// 
.................... ////                            NOTE: If you set to TRUE you must      //// 
.................... ////                            provide your own code in the           //// 
.................... ////                            application that properly send boot    //// 
.................... ////                            or HID packets.                        //// 
.................... ////                                                                   //// 
.................... //// USB_MAX_EP0_PACKET_LENGTH (8) - Max Packet size for Endpoint 0.   //// 
.................... ////                            Only the 18Fxx5x USB peripheral can    //// 
.................... ////                            have a value larger than 8.            //// 
.................... ////                                                                   //// 
.................... //// USB_EPx_RX_ENABLE (USB_ENABLE_DISABLED) - Where x is the          //// 
.................... ////                         endpoint number. Change this define       //// 
.................... ////                         to specify what kind of transfer method   //// 
.................... ////                         this RX (PC to device) endpoint uses.     //// 
.................... ////                       Here is the list of valid transfer methods: //// 
.................... ////                             USB_ENABLE_CONTROL                    //// 
.................... ////                             USB_ENABLE_ISOCHRONOUS                //// 
.................... ////                             USB_ENABLE_BULK                       //// 
.................... ////                             USB_ENABLE_INTERRUPT                  //// 
.................... ////                             USB_ENABLE_DISABLED                   //// 
.................... ////                        Don't forget that you must specify the     //// 
.................... ////                        transfer method properly in your endpoint  //// 
.................... ////                        descriptor, too.                           //// 
.................... ////                                                                   //// 
.................... //// USB_EPx_RX_SIZE (0) - For some hardware it is important to know   //// 
.................... ////                       how much memory to reserve for receiving    //// 
.................... ////                       packets.                                    //// 
.................... ////                                                                   //// 
.................... ////  *** NOTE *** You must have both USB_EPx_RX_ENABLE defined and    //// 
.................... ////               USB_EPx_RX_SIZE defined (non 0) to enable a RX      //// 
.................... ////               endpoint.                                           //// 
.................... ////  *** NOTE *** Endpoint 0 is always enabled.                       //// 
.................... ////                                                                   //// 
.................... //// USB_EPx_TX_ENABLE (USB_ENABLE_DISABLED) - Where x is the          //// 
.................... ////                         endpoint number. Change this define       //// 
.................... ////                         to specify what kind of transfer method   //// 
.................... ////                         this TX (device to PC) endpoint uses.     //// 
.................... ////                       Here is the list of valid transfer methods: //// 
.................... ////                             USB_ENABLE_CONTROL                    //// 
.................... ////                             USB_ENABLE_ISOCHRONOUS                //// 
.................... ////                             USB_ENABLE_BULK                       //// 
.................... ////                             USB_ENABLE_INTERRUPT                  //// 
.................... ////                             USB_ENABLE_DISABLED                   //// 
.................... ////                        Don't forget that you must specify the     //// 
.................... ////                        transfer method properly in your endpoint  //// 
.................... ////                        descriptor, too.                           //// 
.................... ////                                                                   //// 
.................... //// USB_EPx_TX_SIZE (0) - For some hardware it is important to know   //// 
.................... ////                       how much memory to reserve for transmitting //// 
.................... ////                       packets.                                    //// 
.................... ////                                                                   //// 
.................... ////  *** NOTE *** You must have both USB_EPx_TX_ENABLE defined and    //// 
.................... ////               USB_EPx_TX_SIZE defined (non 0) to enable a TX      //// 
.................... ////               endpoint.                                           //// 
.................... ////                                                                   //// 
.................... ////                                                                   //// 
.................... //// USB_HID_DEVICE (TRUE) - HID devices require extra code to handle  //// 
.................... ////                         HID requests.  You can disable to save    //// 
.................... ////                         ROM space if you are not using a HID      //// 
.................... ////                         device.  If you are not using a HID       //// 
.................... ////                         device you must provide your own O/S      //// 
.................... ////                         (Windows) driver.                         //// 
.................... ////                                                                   //// 
.................... //// The other definitions should not be changed.                      //// 
.................... ////                                                                   //// 
.................... /////////////////////////////////////////////////////////////////////////// 
.................... ////                                                                   //// 
.................... //// Version History:                                                  //// 
.................... ////                                                                   //// 
.................... //// July 13th, 2005:                                                  //// 
.................... ////  usb_ep_tx_size[] and usb_ep_rx_size[] changed to 16bits          //// 
.................... ////                                                                   //// 
.................... //// June 20th, 2005:                                                  //// 
.................... ////  Initial 18fxx5x release                                          //// 
.................... ////                                                                   //// 
.................... //// May 13th, 2005:                                                   //// 
.................... ////  Beta release, only works with 18Fxx5x hardware layer.            //// 
.................... ////  Now supports multiple interfaces (many defines in descriptors    //// 
.................... ////   will have to be changed, see examples)                          //// 
.................... ////                                                                   //// 
.................... //// Mar 21st, 2005:                                                   //// 
.................... ////  Initial Alpha Release with PIC18Fxx5x support.  (ONLY TESTED     //// 
.................... ////   WITH 18F4550)                                                   //// 
.................... ////  usb_gets() and usb_puts() changed (see usb.c)                    //// 
.................... ////                                                                   //// 
.................... //// June 24th, 2004:                                                  //// 
.................... ////  Optimization and cleanup.                                        //// 
.................... ////                The following definitions changed:                 //// 
.................... ////  USB_EPx_TX_ENABLE and USB_EPx_RX_ENABLE have changed. See usb.h  //// 
.................... ////  USB_CONFIG_DESCRIPTORS[] removed                                 //// 
.................... ////  USB_CONFIG_DESC_LEN changed to USB_DESC_CONFIG_LEN               //// 
.................... ////  USB_INTERFACE_DESC_LEN changed to USB_DESC_INTERFACE_LEN         //// 
.................... ////  USB_CLASS_DESC_LEN changed to USB_DESC_CLASS_LEN                 //// 
.................... ////  USB_ENDPOINT_DESC_LEN changed to USB_DESC_ENDPOINT_LEN           //// 
.................... ////  USB_CONFIG_DESC_KEY changed to USB_DESC_CONFIG_TYPE              //// 
.................... ////  USB_INTERFACE_DESC_KEY changed to USB_DESC_INTERFACE_TYPE        //// 
.................... ////  USB_CLASS_DESC_KEY changed to USB_DESC_CLASS_TYPE                //// 
.................... ////  USB_ENDPOINT_DESC_KEY changed to USB_DESC_ENDPOINT_TYPE          //// 
.................... ////  USB_STRING_X[] arrays removed, see USB_STRING_DESC[] and         //// 
.................... ////                                 USB_STRING_DESC_OFFSET[]          //// 
.................... ////  dev_req, curr_config, status_device and getdesc_type global      //// 
.................... ////        variables moved into struct USB_stack_status               //// 
.................... ////                                                                   //// 
.................... //// October 15th, 2003: Support for boot protocol added.              //// 
.................... ////         Set USB_HID_BOOT_PROTOCOL to TRUE to support this.        //// 
.................... ////         The array hid_protocol[] saves which protocol mode each   //// 
.................... ////         interface is in.  It is your applications job to send     //// 
.................... ////         data that either fit the boot protocol or HID protocol.   //// 
.................... ////                                                                   //// 
.................... //// May 6th, 2003: Fixed a potential stack overflow using PCM         //// 
.................... ////                                                                   //// 
.................... //// October 29th, 2002: New definition added to USB_STATES            //// 
.................... ////                                                                   //// 
.................... //// August 2nd, 2002: Initial Public Release                          //// 
.................... ////                                                                   //// 
.................... /////////////////////////////////////////////////////////////////////////// 
.................... ////        (C) Copyright 1996,2005 Custom Computer Services           //// 
.................... //// This source code may only be used by licensed users of the CCS    //// 
.................... //// C compiler.  This source code may only be distributed to other    //// 
.................... //// licensed users of the CCS C compiler.  No other use,              //// 
.................... //// reproduction or distribution is permitted without written         //// 
.................... //// permission.  Derivative programs created using this software      //// 
.................... //// in object code form are not restricted in any way.                //// 
.................... /////////////////////////////////////////////////////////////////////////// 
....................  
....................  
.................... #IFNDEF __USB_PROTOTYPES__ 
.................... #DEFINE __USB_PROTOTYPES__ 
....................  
.................... #IFNDEF USB_HID_BOOT_PROTOCOL 
....................    #DEFINE USB_HID_BOOT_PROTOCOL FALSE 
.................... #ENDIF 
....................  
.................... #IFNDEF USB_HID_IDLE 
....................    #DEFINE USB_HID_IDLE FALSE 
.................... #ENDIF 
....................  
.................... //should the compiler add the extra HID handler code?  Defaults to yes. 
.................... #IFNDEF USB_HID_DEVICE 
....................    #DEFINE USB_HID_DEVICE TRUE 
.................... #ENDIF 
....................  
.................... #IFNDEF USB_CDC_DEVICE 
....................    #DEFINE USB_CDC_DEVICE FALSE 
.................... #ENDIF 
....................  
.................... #ifndef USB_OPT_FOR_ROM 
....................    #define USB_OPT_FOR_ROM TRUE  //set to false to opt for less RAM, true to opt for less ROM 
.................... #endif 
....................  
.................... #IFNDEF USB_MAX_EP0_PACKET_LENGTH 
....................   #DEFINE USB_MAX_EP0_PACKET_LENGTH 8 
.................... #ENDIF 
....................  
.................... //CCS only supports one configuration at this time 
.................... #DEFINE USB_NUM_CONFIGURATIONS 1 //DO NOT CHANGE 
....................  
.................... //PID values for tokens (see page 48 of USB Complete ed.1) 
.................... #define PID_IN       0x09  //device to host transactions 
.................... #define PID_OUT      0x01  //host to device transactions 
.................... #define PID_SETUP    0x0D  //host to device setup transaction 
.................... #define PID_ACK      0x02  //receiver accepts error-free data packet 
.................... #define PID_DATA0    0x03  //data packet with even sync bit 
.................... #define PID_SOF      0x05  //start of framer marker and frame number 
.................... #define PID_NAK      0x0A  //receiver can't accept data or sender cant send data or has no data to transmit 
.................... #define PID_DATA1    0x0B  //data packet with odd sync bit 
.................... #define PID_PRE      0x0C  //preamble issued by host.  enables downstream traffic to low-speed device 
.................... #define PID_STALL    0x0E  //a control request isnt supported or the endpoint is halted 
....................  
.................... //Key which identifies descritpors 
.................... #DEFINE USB_DESC_DEVICE_TYPE     0x01  //#DEFINE USB_DEVICE_DESC_KEY      0x01 
.................... #DEFINE USB_DESC_CONFIG_TYPE     0x02  //#DEFINE USB_CONFIG_DESC_KEY      0x02 
.................... #DEFINE USB_DESC_STRING_TYPE     0x03  //#DEFINE USB_STRING_DESC_KEY      0x03 
.................... #DEFINE USB_DESC_INTERFACE_TYPE  0x04  //#DEFINE USB_INTERFACE_DESC_KEY   0x04 
.................... #DEFINE USB_DESC_ENDPOINT_TYPE   0x05  //#DEFINE USB_ENDPOINT_DESC_KEY    0x05 
.................... #DEFINE USB_DESC_CLASS_TYPE      0x21  //#DEFINE USB_CLASS_DESC_KEY       0x21 
.................... #DEFINE USB_DESC_HIDREPORT_TYPE  0x22 
....................  
.................... //The length of each descriptor 
.................... #DEFINE USB_DESC_DEVICE_LEN      18 //#DEFINE USB_DEVICE_DESC_LEN      18 
.................... #DEFINE USB_DESC_CONFIG_LEN      9  //#DEFINE USB_CONFIG_DESC_LEN      9 
.................... #DEFINE USB_DESC_INTERFACE_LEN   9  //#DEFINE USB_INTERFACE_DESC_LEN   9 
.................... #DEFINE USB_DESC_CLASS_LEN       9  //#DEFINE USB_CLASS_DESC_LEN       9 
.................... #DEFINE USB_DESC_ENDPOINT_LEN    7  //#DEFINE USB_ENDPOINT_DESC_LEN    7 
....................  
.................... //Standard USB Setup bRequest Codes 
.................... #define USB_STANDARD_REQUEST_GET_STATUS         0x00 
.................... #define USB_STANDARD_REQUEST_CLEAR_FEATURE      0x01 
.................... #define USB_STANDARD_REQUEST_SET_FEATURE        0x03 
.................... #define USB_STANDARD_REQUEST_SET_ADDRESS        0x05 
.................... #define USB_STANDARD_REQUEST_GET_DESCRIPTOR     0x06 
.................... #define USB_STANDARD_REQUEST_SET_DESCRIPTOR     0x07 
.................... #define USB_STANDARD_REQUEST_GET_CONFIGURATION  0x08 
.................... #define USB_STANDARD_REQUEST_SET_CONFIGURATION  0x09 
.................... #define USB_STANDARD_REQUEST_GET_INTERFACE      0x0A 
.................... #define USB_STANDARD_REQUEST_SET_INTERFACE      0x0B 
.................... #define USB_STANDARD_REQUEST_SYNCH_FRAME        0x0C 
....................  
.................... //HID Class Setup bRequest Codes 
.................... #define USB_HID_REQUEST_GET_REPORT     0x01 
.................... #define USB_HID_REQUEST_GET_IDLE       0x02 
.................... #define USB_HID_REQUEST_GET_PROTOCOL   0x03 
.................... #define USB_HID_REQUEST_SET_REPORT     0x09 
.................... #define USB_HID_REQUEST_SET_IDLE       0x0A 
.................... #define USB_HID_REQUEST_SET_PROTOCOL   0x0B 
....................  
.................... //types of endpoints as defined in the descriptor 
.................... #define USB_ENDPOINT_TYPE_CONTROL      0x00 
.................... #define USB_ENDPOINT_TYPE_ISOCHRONOUS  0x01 
.................... #define USB_ENDPOINT_TYPE_BULK         0x02 
.................... #define USB_ENDPOINT_TYPE_INTERRUPT    0x03 
....................  
.................... //types of endpoints used internally in this api 
.................... #define USB_ENABLE_DISABLED     0 
.................... #define USB_ENABLE_BULK         0x01 
.................... #define USB_ENABLE_ISOCHRONOUS  0x02 
.................... #define USB_ENABLE_INTERRUPT    0x03 
.................... #define USB_ENABLE_CONTROL      0x04 
....................  
.................... //// DO NOT CHANGE THE FOLLOWING VALUES: 
....................  
.................... enum USB_STATES {GET_DESCRIPTOR=1,SET_ADDRESS=2,NONE=0}; 
....................  
.................... enum USB_DTS_BIT {USB_DTS_DATA1=1, USB_DTS_TOGGLE=2, USB_DTS_DATA0=0, 
....................                    USB_DTS_STALL=3, USB_DTS_USERX=4}; 
....................  
.................... enum USB_GETDESC_TYPES {USB_GETDESC_CONFIG_TYPE=0,USB_GETDESC_HIDREPORT_TYPE=1,USB_GETDESC_STRING_TYPE=2,USB_GETDESC_DEVICE_TYPE=3}; 
....................  
.................... #if USB_OPT_FOR_ROM 
.................... struct { 
....................    USB_STATES dev_req;   //what did the last setup token set us up to do?.  init at none 
....................    int  curr_config;  //our current config.  start at none/powered (NOT THAT THIS LIMITS US TO 3 CONFIGURATIONS) 
....................    int status_device; //Holds our state for Set_Feature and Clear_Feature 
....................    USB_GETDESC_TYPES getdesc_type;   //which get_descriptor() we are handling 
.................... } USB_stack_status; 
.................... #else 
.................... struct { 
....................    USB_STATES dev_req:2;   //what did the last setup token set us up to do?.  init at none 
....................    int  Curr_config:2;  //our current config.  start at none/powered (NOT THAT THIS LIMITS US TO 3 CONFIGURATIONS) 
....................    int status_device:2; //Holds our state for Set_Feature and Clear_Feature 
....................    USB_GETDESC_TYPES getdesc_type:2;   //which get_descriptor() we are handling 
.................... } USB_stack_status; 
.................... #endif 
....................  
.................... int16 __usb_kbhit_status; 
....................  
.................... /// *** User function prototypes 
.................... void usb_wait_for_enumeration(void); 
.................... int1 usb_unermated(void); 
.................... int8 usb_gets(int8 endpoint, int8 * ptr, int16 max, int16 timeout); 
.................... int1 usb_puts(int8 endpoint, int8 * ptr, int16 len, int8 timeout); 
....................  
.................... /// *** Token and request hanlder function prototypes 
.................... void usb_token_reset(); 
....................  
.................... void usb_put_0len_0(void); 
.................... void usb_request_send_response(int len);   //always sends usb_ep0_rx_buffer[] to endpoint 0 with a toggle of DATA 
....................  
.................... void usb_match_registers(int8 endpoint, int16 *status, int16 *buffer, int8 *size); 
....................  
.................... void usb_isr_tok_in_dne(int8 endpoint); 
.................... void usb_isr_tok_out_dne(int8 endpoint); 
.................... void usb_isr_tok_setup_dne(void); 
....................  
.................... void usb_isr_tkn_setup_StandardEndpoint(void); 
.................... void usb_isr_tkn_setup_StandardDevice(void); 
.................... void usb_isr_tkn_setup_StandardInterface(void); 
....................  
.................... #IF USB_HID_DEVICE 
....................    void usb_isr_tkn_setup_ClassInterface(void); 
.................... #ENDIF 
....................  
.................... void usb_Get_Descriptor(void); 
.................... void usb_copy_desc_seg_to_ep(void); 
....................  
.................... void usb_finish_set_address(void); 
....................  
.................... //*** ENABLE RX ENDPOINTS AND BUFFERS 
....................  
.................... //--------- endpoint 0 defines ---------- 
.................... #define USB_EP0_TX_ENABLE  USB_ENABLE_CONTROL 
.................... #define USB_EP0_RX_ENABLE  USB_ENABLE_CONTROL 
.................... #define USB_EP0_RX_SIZE    USB_MAX_EP0_PACKET_LENGTH  //endpoint 0 is setup, and should always be the MAX_PACKET_LENGTH.  Slow speed specifies 8 
.................... #define USB_EP0_TX_SIZE    USB_MAX_EP0_PACKET_LENGTH  //endpoint 0 is setup, and should always be the MAX_PACKET_LENGTH.  Slow speed specifies 8 
....................  
.................... //--------- endpoint 1 defines ---------- 
.................... #ifndef USB_EP1_TX_ENABLE 
....................  #define USB_EP1_TX_ENABLE USB_ENABLE_DISABLED 
.................... #endif 
.................... #ifndef USB_EP1_RX_ENABLE 
....................  #define USB_EP1_RX_ENABLE USB_ENABLE_DISABLED 
.................... #endif 
....................  
.................... #if USB_EP1_RX_ENABLE==USB_ENABLE_DISABLED 
....................  #ifdef USB_EP1_RX_SIZE 
....................   #undef USB_EP1_RX_SIZE 
....................  #endif 
....................  #define USB_EP1_RX_SIZE 0 
.................... #else 
....................  #ifndef USB_EP1_RX_SIZE 
....................   #error You enabled EP1 for RX but didn't specify endpoint size 
....................  #endif 
.................... #endif 
....................  
.................... #if USB_EP1_TX_ENABLE==USB_ENABLE_DISABLED 
....................  #ifdef USB_EP1_TX_SIZE 
....................   #undef USB_EP1_TX_SIZE 
....................  #endif 
....................  #define USB_EP1_TX_SIZE 0 
.................... #else 
....................  #ifndef USB_EP1_TX_SIZE 
....................   #error You enabled EP1 for TX but didn't specify endpoint size 
....................  #endif 
.................... #endif 
....................  
....................  
.................... //--------- endpoint 2 defines ---------- 
.................... #ifndef USB_EP2_TX_ENABLE 
....................  #define USB_EP2_TX_ENABLE USB_ENABLE_DISABLED 
.................... #endif 
.................... #ifndef USB_EP2_RX_ENABLE 
....................  #define USB_EP2_RX_ENABLE USB_ENABLE_DISABLED 
.................... #endif 
....................  
.................... #if USB_EP2_RX_ENABLE==USB_ENABLE_DISABLED 
....................  #ifdef USB_EP2_RX_SIZE 
....................   #undef USB_EP2_RX_SIZE 
....................  #endif 
....................  #define USB_EP2_RX_SIZE 0 
.................... #else 
....................  #ifndef USB_EP2_RX_SIZE 
....................   #error You enabled EP2 for RX but didn't specify endpoint size 
....................  #endif 
.................... #endif 
....................  
.................... #if USB_EP2_TX_ENABLE==USB_ENABLE_DISABLED 
....................  #ifdef USB_EP2_TX_SIZE 
....................   #undef USB_EP2_TX_SIZE 
....................  #endif 
....................  #define USB_EP2_TX_SIZE 0 
.................... #else 
....................  #ifndef USB_EP2_TX_SIZE 
....................   #error You enabled EP2 for TX but didn't specify endpoint size 
....................  #endif 
.................... #endif 
....................  
....................  
.................... //--------- endpoint 3 defines ---------- 
.................... #ifndef USB_EP3_TX_ENABLE 
....................  #define USB_EP3_TX_ENABLE USB_ENABLE_DISABLED 
.................... #endif 
.................... #ifndef USB_EP3_RX_ENABLE 
....................  #define USB_EP3_RX_ENABLE USB_ENABLE_DISABLED 
.................... #endif 
....................  
.................... #if USB_EP3_RX_ENABLE==USB_ENABLE_DISABLED 
....................  #ifdef USB_EP3_RX_SIZE 
....................   #undef USB_EP3_RX_SIZE 
....................  #endif 
....................  #define USB_EP3_RX_SIZE 0 
.................... #else 
....................  #ifndef USB_EP3_RX_SIZE 
....................   #error You enabled EP3 for RX but didn't specify endpoint size 
....................  #endif 
.................... #endif 
....................  
.................... #if USB_EP3_TX_ENABLE==USB_ENABLE_DISABLED 
....................  #ifdef USB_EP3_TX_SIZE 
....................   #undef USB_EP3_TX_SIZE 
....................  #endif 
....................  #define USB_EP3_TX_SIZE 0 
.................... #else 
....................  #ifndef USB_EP3_TX_SIZE 
....................   #error You enabled EP3 for TX but didn't specify endpoint size 
....................  #endif 
.................... #endif 
....................  
....................  
.................... //--------- endpoint 4 defines ---------- 
.................... #ifndef USB_EP4_TX_ENABLE 
....................  #define USB_EP4_TX_ENABLE USB_ENABLE_DISABLED 
.................... #endif 
.................... #ifndef USB_EP4_RX_ENABLE 
....................  #define USB_EP4_RX_ENABLE USB_ENABLE_DISABLED 
.................... #endif 
....................  
.................... #if USB_EP4_RX_ENABLE==USB_ENABLE_DISABLED 
....................  #ifdef USB_EP4_RX_SIZE 
....................   #undef USB_EP4_RX_SIZE 
....................  #endif 
....................  #define USB_EP4_RX_SIZE 0 
.................... #else 
....................  #ifndef USB_EP4_RX_SIZE 
....................   #error You enabled EP4 for RX but didn't specify endpoint size 
....................  #endif 
.................... #endif 
....................  
.................... #if USB_EP4_TX_ENABLE==USB_ENABLE_DISABLED 
....................  #ifdef USB_EP4_TX_SIZE 
....................   #undef USB_EP4_TX_SIZE 
....................  #endif 
....................  #define USB_EP4_TX_SIZE 0 
.................... #else 
....................  #ifndef USB_EP4_TX_SIZE 
....................   #error You enabled EP4 for TX but didn't specify endpoint size 
....................  #endif 
.................... #endif 
....................  
....................  
.................... //--------- endpoint 5 defines ---------- 
.................... #ifndef USB_EP5_TX_ENABLE 
....................  #define USB_EP5_TX_ENABLE USB_ENABLE_DISABLED 
.................... #endif 
.................... #ifndef USB_EP5_RX_ENABLE 
....................  #define USB_EP5_RX_ENABLE USB_ENABLE_DISABLED 
.................... #endif 
....................  
.................... #if USB_EP5_RX_ENABLE==USB_ENABLE_DISABLED 
....................  #ifdef USB_EP5_RX_SIZE 
....................   #undef USB_EP5_RX_SIZE 
....................  #endif 
....................  #define USB_EP5_RX_SIZE 0 
.................... #else 
....................  #ifndef USB_EP5_RX_SIZE 
....................   #error You enabled EP5 for RX but didn't specify endpoint size 
....................  #endif 
.................... #endif 
....................  
.................... #if USB_EP5_TX_ENABLE==USB_ENABLE_DISABLED 
....................  #ifdef USB_EP5_TX_SIZE 
....................   #undef USB_EP5_TX_SIZE 
....................  #endif 
....................  #define USB_EP5_TX_SIZE 0 
.................... #else 
....................  #ifndef USB_EP5_TX_SIZE 
....................   #error You enabled EP5 for TX but didn't specify endpoint size 
....................  #endif 
.................... #endif 
....................  
....................  
.................... //--------- endpoint 6 defines ---------- 
.................... #ifndef USB_EP6_TX_ENABLE 
....................  #define USB_EP6_TX_ENABLE USB_ENABLE_DISABLED 
.................... #endif 
.................... #ifndef USB_EP6_RX_ENABLE 
....................  #define USB_EP6_RX_ENABLE USB_ENABLE_DISABLED 
.................... #endif 
....................  
.................... #if USB_EP6_RX_ENABLE==USB_ENABLE_DISABLED 
....................  #ifdef USB_EP6_RX_SIZE 
....................   #undef USB_EP6_RX_SIZE 
....................  #endif 
....................  #define USB_EP6_RX_SIZE 0 
.................... #else 
....................  #ifndef USB_EP6_RX_SIZE 
....................   #error You enabled EP6 for RX but didn't specify endpoint size 
....................  #endif 
.................... #endif 
....................  
.................... #if USB_EP6_TX_ENABLE==USB_ENABLE_DISABLED 
....................  #ifdef USB_EP6_TX_SIZE 
....................   #undef USB_EP6_TX_SIZE 
....................  #endif 
....................  #define USB_EP6_TX_SIZE 0 
.................... #else 
....................  #ifndef USB_EP6_TX_SIZE 
....................   #error You enabled EP6 for TX but didn't specify endpoint size 
....................  #endif 
.................... #endif 
....................  
....................  
.................... //--------- endpoint 7 defines ---------- 
.................... #ifndef USB_EP7_TX_ENABLE 
....................  #define USB_EP7_TX_ENABLE USB_ENABLE_DISABLED 
.................... #endif 
.................... #ifndef USB_EP7_RX_ENABLE 
....................  #define USB_EP7_RX_ENABLE USB_ENABLE_DISABLED 
.................... #endif 
....................  
.................... #if USB_EP7_RX_ENABLE==USB_ENABLE_DISABLED 
....................  #ifdef USB_EP7_RX_SIZE 
....................   #undef USB_EP7_RX_SIZE 
....................  #endif 
....................  #define USB_EP7_RX_SIZE 0 
.................... #else 
....................  #ifndef USB_EP7_RX_SIZE 
....................   #error You enabled EP7 for RX but didn't specify endpoint size 
....................  #endif 
.................... #endif 
....................  
.................... #if USB_EP7_TX_ENABLE==USB_ENABLE_DISABLED 
....................  #ifdef USB_EP7_TX_SIZE 
....................   #undef USB_EP7_TX_SIZE 
....................  #endif 
....................  #define USB_EP7_TX_SIZE 0 
.................... #else 
....................  #ifndef USB_EP7_TX_SIZE 
....................   #error You enabled EP7 for TX but didn't specify endpoint size 
....................  #endif 
.................... #endif 
....................  
....................  
.................... //--------- endpoint 8 defines ---------- 
.................... #ifndef USB_EP8_TX_ENABLE 
....................  #define USB_EP8_TX_ENABLE USB_ENABLE_DISABLED 
.................... #endif 
.................... #ifndef USB_EP8_RX_ENABLE 
....................  #define USB_EP8_RX_ENABLE USB_ENABLE_DISABLED 
.................... #endif 
....................  
.................... #if USB_EP8_RX_ENABLE==USB_ENABLE_DISABLED 
....................  #ifdef USB_EP8_RX_SIZE 
....................   #undef USB_EP8_RX_SIZE 
....................  #endif 
....................  #define USB_EP8_RX_SIZE 0 
.................... #else 
....................  #ifndef USB_EP8_RX_SIZE 
....................   #error You enabled EP8 for RX but didn't specify endpoint size 
....................  #endif 
.................... #endif 
....................  
.................... #if USB_EP8_TX_ENABLE==USB_ENABLE_DISABLED 
....................  #ifdef USB_EP8_TX_SIZE 
....................   #undef USB_EP8_TX_SIZE 
....................  #endif 
....................  #define USB_EP8_TX_SIZE 0 
.................... #else 
....................  #ifndef USB_EP8_TX_SIZE 
....................   #error You enabled EP8 for TX but didn't specify endpoint size 
....................  #endif 
.................... #endif 
....................  
....................  
.................... //--------- endpoint 9 defines ---------- 
.................... #ifndef USB_EP9_TX_ENABLE 
....................  #define USB_EP9_TX_ENABLE USB_ENABLE_DISABLED 
.................... #endif 
.................... #ifndef USB_EP9_RX_ENABLE 
....................  #define USB_EP9_RX_ENABLE USB_ENABLE_DISABLED 
.................... #endif 
....................  
.................... #if USB_EP9_RX_ENABLE==USB_ENABLE_DISABLED 
....................  #ifdef USB_EP9_RX_SIZE 
....................   #undef USB_EP9_RX_SIZE 
....................  #endif 
....................  #define USB_EP9_RX_SIZE 0 
.................... #else 
....................  #ifndef USB_EP9_RX_SIZE 
....................   #error You enabled EP9 for RX but didn't specify endpoint size 
....................  #endif 
.................... #endif 
....................  
.................... #if USB_EP9_TX_ENABLE==USB_ENABLE_DISABLED 
....................  #ifdef USB_EP9_TX_SIZE 
....................   #undef USB_EP9_TX_SIZE 
....................  #endif 
....................  #define USB_EP9_TX_SIZE 0 
.................... #else 
....................  #ifndef USB_EP9_TX_SIZE 
....................   #error You enabled EP9 for TX but didn't specify endpoint size 
....................  #endif 
.................... #endif 
....................  
....................  
.................... //--------- endpoint 10 defines ---------- 
.................... #ifndef USB_EP10_TX_ENABLE 
....................  #define USB_EP10_TX_ENABLE USB_ENABLE_DISABLED 
.................... #endif 
.................... #ifndef USB_EP10_RX_ENABLE 
....................  #define USB_EP10_RX_ENABLE USB_ENABLE_DISABLED 
.................... #endif 
....................  
.................... #if USB_EP10_RX_ENABLE==USB_ENABLE_DISABLED 
....................  #ifdef USB_EP10_RX_SIZE 
....................   #undef USB_EP10_RX_SIZE 
....................  #endif 
....................  #define USB_EP10_RX_SIZE 0 
.................... #else 
....................  #ifndef USB_EP10_RX_SIZE 
....................   #error You enabled EP10 for RX but didn't specify endpoint size 
....................  #endif 
.................... #endif 
....................  
.................... #if USB_EP10_TX_ENABLE==USB_ENABLE_DISABLED 
....................  #ifdef USB_EP10_TX_SIZE 
....................   #undef USB_EP10_TX_SIZE 
....................  #endif 
....................  #define USB_EP10_TX_SIZE 0 
.................... #else 
....................  #ifndef USB_EP10_TX_SIZE 
....................   #error You enabled EP10 for TX but didn't specify endpoint size 
....................  #endif 
.................... #endif 
....................  
....................  
.................... //--------- endpoint 11 defines ---------- 
.................... #ifndef USB_EP11_TX_ENABLE 
....................  #define USB_EP11_TX_ENABLE USB_ENABLE_DISABLED 
.................... #endif 
.................... #ifndef USB_EP11_RX_ENABLE 
....................  #define USB_EP11_RX_ENABLE USB_ENABLE_DISABLED 
.................... #endif 
....................  
.................... #if USB_EP11_RX_ENABLE==USB_ENABLE_DISABLED 
....................  #ifdef USB_EP11_RX_SIZE 
....................   #undef USB_EP11_RX_SIZE 
....................  #endif 
....................  #define USB_EP11_RX_SIZE 0 
.................... #else 
....................  #ifndef USB_EP11_RX_SIZE 
....................   #error You enabled EP11 for RX but didn't specify endpoint size 
....................  #endif 
.................... #endif 
....................  
.................... #if USB_EP11_TX_ENABLE==USB_ENABLE_DISABLED 
....................  #ifdef USB_EP11_TX_SIZE 
....................   #undef USB_EP11_TX_SIZE 
....................  #endif 
....................  #define USB_EP11_TX_SIZE 0 
.................... #else 
....................  #ifndef USB_EP11_TX_SIZE 
....................   #error You enabled EP11 for TX but didn't specify endpoint size 
....................  #endif 
.................... #endif 
....................  
....................  
.................... //--------- endpoint 12 defines ---------- 
.................... #ifndef USB_EP12_TX_ENABLE 
....................  #define USB_EP12_TX_ENABLE USB_ENABLE_DISABLED 
.................... #endif 
.................... #ifndef USB_EP12_RX_ENABLE 
....................  #define USB_EP12_RX_ENABLE USB_ENABLE_DISABLED 
.................... #endif 
....................  
.................... #if USB_EP12_RX_ENABLE==USB_ENABLE_DISABLED 
....................  #ifdef USB_EP12_RX_SIZE 
....................   #undef USB_EP12_RX_SIZE 
....................  #endif 
....................  #define USB_EP12_RX_SIZE 0 
.................... #else 
....................  #ifndef USB_EP12_RX_SIZE 
....................   #error You enabled EP12 for RX but didn't specify endpoint size 
....................  #endif 
.................... #endif 
....................  
.................... #if USB_EP12_TX_ENABLE==USB_ENABLE_DISABLED 
....................  #ifdef USB_EP12_TX_SIZE 
....................   #undef USB_EP12_TX_SIZE 
....................  #endif 
....................  #define USB_EP12_TX_SIZE 0 
.................... #else 
....................  #ifndef USB_EP12_TX_SIZE 
....................   #error You enabled EP12 for TX but didn't specify endpoint size 
....................  #endif 
.................... #endif 
....................  
....................  
.................... //--------- endpoint 13 defines ---------- 
.................... #ifndef USB_EP13_TX_ENABLE 
....................  #define USB_EP13_TX_ENABLE USB_ENABLE_DISABLED 
.................... #endif 
.................... #ifndef USB_EP13_RX_ENABLE 
....................  #define USB_EP13_RX_ENABLE USB_ENABLE_DISABLED 
.................... #endif 
....................  
.................... #if USB_EP13_RX_ENABLE==USB_ENABLE_DISABLED 
....................  #ifdef USB_EP13_RX_SIZE 
....................   #undef USB_EP13_RX_SIZE 
....................  #endif 
....................  #define USB_EP13_RX_SIZE 0 
.................... #else 
....................  #ifndef USB_EP13_RX_SIZE 
....................   #error You enabled EP13 for RX but didn't specify endpoint size 
....................  #endif 
.................... #endif 
....................  
.................... #if USB_EP13_TX_ENABLE==USB_ENABLE_DISABLED 
....................  #ifdef USB_EP13_TX_SIZE 
....................   #undef USB_EP13_TX_SIZE 
....................  #endif 
....................  #define USB_EP13_TX_SIZE 0 
.................... #else 
....................  #ifndef USB_EP13_TX_SIZE 
....................   #error You enabled EP13 for TX but didn't specify endpoint size 
....................  #endif 
.................... #endif 
....................  
....................  
.................... //--------- endpoint 14 defines ---------- 
.................... #ifndef USB_EP14_TX_ENABLE 
....................  #define USB_EP14_TX_ENABLE USB_ENABLE_DISABLED 
.................... #endif 
.................... #ifndef USB_EP14_RX_ENABLE 
....................  #define USB_EP14_RX_ENABLE USB_ENABLE_DISABLED 
.................... #endif 
....................  
.................... #if USB_EP14_RX_ENABLE==USB_ENABLE_DISABLED 
....................  #ifdef USB_EP14_RX_SIZE 
....................   #undef USB_EP14_RX_SIZE 
....................  #endif 
....................  #define USB_EP14_RX_SIZE 0 
.................... #else 
....................  #ifndef USB_EP14_RX_SIZE 
....................   #error You enabled EP14 for RX but didn't specify endpoint size 
....................  #endif 
.................... #endif 
....................  
.................... #if USB_EP14_TX_ENABLE==USB_ENABLE_DISABLED 
....................  #ifdef USB_EP14_TX_SIZE 
....................   #undef USB_EP14_TX_SIZE 
....................  #endif 
....................  #define USB_EP14_TX_SIZE 0 
.................... #else 
....................  #ifndef USB_EP14_TX_SIZE 
....................   #error You enabled EP14 for TX but didn't specify endpoint size 
....................  #endif 
.................... #endif 
....................  
....................  
.................... //--------- endpoint 15 defines ---------- 
.................... #ifndef USB_EP15_TX_ENABLE 
....................  #define USB_EP15_TX_ENABLE USB_ENABLE_DISABLED 
.................... #endif 
.................... #ifndef USB_EP15_RX_ENABLE 
....................  #define USB_EP15_RX_ENABLE USB_ENABLE_DISABLED 
.................... #endif 
....................  
.................... #if USB_EP15_RX_ENABLE==USB_ENABLE_DISABLED 
....................  #ifdef USB_EP15_RX_SIZE 
....................   #undef USB_EP15_RX_SIZE 
....................  #endif 
....................  #define USB_EP15_RX_SIZE 0 
.................... #else 
....................  #ifndef USB_EP15_RX_SIZE 
....................   #error You enabled EP15 for RX but didn't specify endpoint size 
....................  #endif 
.................... #endif 
....................  
.................... #if USB_EP15_TX_ENABLE==USB_ENABLE_DISABLED 
....................  #ifdef USB_EP15_TX_SIZE 
....................   #undef USB_EP15_TX_SIZE 
....................  #endif 
....................  #define USB_EP15_TX_SIZE 0 
.................... #else 
....................  #ifndef USB_EP15_TX_SIZE 
....................   #error You enabled EP15 for TX but didn't specify endpoint size 
....................  #endif 
.................... #endif 
....................  
.................... const int8 usb_ep_tx_type[16]={ 
....................   USB_EP0_TX_ENABLE, USB_EP1_TX_ENABLE, USB_EP2_TX_ENABLE, 
....................   USB_EP3_TX_ENABLE, USB_EP4_TX_ENABLE, USB_EP5_TX_ENABLE, 
....................   USB_EP6_TX_ENABLE, USB_EP7_TX_ENABLE, USB_EP8_TX_ENABLE, 
....................   USB_EP9_TX_ENABLE, USB_EP10_TX_ENABLE, USB_EP11_TX_ENABLE, 
....................   USB_EP12_TX_ENABLE, USB_EP13_TX_ENABLE, USB_EP14_TX_ENABLE, 
....................   USB_EP15_TX_ENABLE 
.................... }; 
....................  
.................... const int8 usb_ep_rx_type[16]={ 
....................   USB_EP0_RX_ENABLE, USB_EP1_RX_ENABLE, USB_EP2_RX_ENABLE, 
....................   USB_EP3_RX_ENABLE, USB_EP4_RX_ENABLE, USB_EP5_RX_ENABLE, 
....................   USB_EP6_RX_ENABLE, USB_EP7_RX_ENABLE, USB_EP8_RX_ENABLE, 
....................   USB_EP9_RX_ENABLE, USB_EP10_RX_ENABLE, USB_EP11_RX_ENABLE, 
....................   USB_EP12_RX_ENABLE, USB_EP13_RX_ENABLE, USB_EP14_RX_ENABLE, 
....................   USB_EP15_RX_ENABLE 
.................... }; 
....................  
.................... const int16 usb_ep_tx_size[16]={ 
....................   USB_EP0_TX_SIZE, USB_EP1_TX_SIZE, USB_EP2_TX_SIZE, 
....................   USB_EP3_TX_SIZE, USB_EP4_TX_SIZE, USB_EP5_TX_SIZE, 
....................   USB_EP6_TX_SIZE, USB_EP7_TX_SIZE, USB_EP8_TX_SIZE, 
....................   USB_EP9_TX_SIZE, USB_EP10_TX_SIZE, USB_EP11_TX_SIZE, 
....................   USB_EP12_TX_SIZE, USB_EP13_TX_SIZE, USB_EP14_TX_SIZE, 
....................   USB_EP15_TX_SIZE 
.................... }; 
....................  
.................... const int16 usb_ep_rx_size[16]={ 
....................   USB_EP0_RX_SIZE, USB_EP1_RX_SIZE, USB_EP2_RX_SIZE, 
....................   USB_EP3_RX_SIZE, USB_EP4_RX_SIZE, USB_EP5_RX_SIZE, 
....................   USB_EP6_RX_SIZE, USB_EP7_RX_SIZE, USB_EP8_RX_SIZE, 
....................   USB_EP9_RX_SIZE, USB_EP10_RX_SIZE, USB_EP11_RX_SIZE, 
....................   USB_EP12_RX_SIZE, USB_EP13_RX_SIZE, USB_EP14_RX_SIZE, 
....................   USB_EP15_RX_SIZE 
.................... }; 
....................  
.................... #ENDIF 
....................  
....................  
.................... #define USB_BUFFER_NEEDED (USB_EP0_TX_SIZE+USB_EP0_RX_SIZE+USB_EP1_TX_SIZE+USB_EP1_RX_SIZE+USB_EP2_TX_SIZE+USB_EP2_RX_SIZE+USB_EP3_TX_SIZE+USB_EP3_RX_SIZE+USB_EP4_TX_SIZE+USB_EP4_RX_SIZE+USB_EP5_TX_SIZE+USB_EP5_RX_SIZE+USB_EP6_TX_SIZE+USB_EP6_RX_SIZE+USB_EP7_TX_SIZE+USB_EP7_RX_SIZE+USB_EP8_TX_SIZE+USB_EP8_RX_SIZE+USB_EP9_TX_SIZE+USB_EP9_RX_SIZE+USB_EP10_TX_SIZE+USB_EP10_RX_SIZE+USB_EP11_TX_SIZE+USB_EP11_RX_SIZE+USB_EP12_TX_SIZE+USB_EP12_RX_SIZE+USB_EP13_TX_SIZE+USB_EP13_RX_SIZE+USB_EP14_TX_SIZE+USB_EP14_RX_SIZE+USB_EP15_TX_SIZE+USB_EP15_RX_SIZE) 
....................  
.................... #if (USB_BUFFER_NEEDED > 0x2FF) 
....................  #error You are trying to allocate more memory for endpoints than the PIC can handle 
.................... #endif 
....................  
.................... #reserve 0x400:0x500+USB_BUFFER_NEEDED 
....................  
.................... #define debug_usb(a,b,c,d,e,f,g,h,i,j,k,l,m,n,o,p,q,r,s,t,u,v,w,x,y,z) 
.................... //#define debug_usb printf 
.................... //#define debug_putc putc_tbe 
.................... #define debug_display_ram(x,y) 
.................... /* 
.................... void debug_display_ram(int8 len, int8 *ptr) { 
....................    int8 max=16; 
....................    debug_usb(debug_putc,"%U - ",len); 
....................    if (max>len) {max=len;} 
....................    while(max--) { 
....................       debug_usb(debug_putc,"%X",*ptr); 
....................       len--; 
....................       ptr++; 
....................    } 
....................    if (len) {debug_usb(debug_putc,"...");} 
.................... } 
.................... */ 
....................  
.................... //if you are worried that the PIC is not receiving packets because a bug in the 
.................... //DATA0/DATA1 synch code, you can set this to TRUE to ignore the DTS on 
.................... //receiving. 
.................... #ifndef USB_IGNORE_RX_DTS 
....................  #define USB_IGNORE_RX_DTS FALSE 
.................... #endif 
....................  
.................... #ifndef USB_IGNORE_TX_DTS 
....................  #define USB_IGNORE_TX_DTS FALSE 
.................... #endif 
....................  
.................... //if you enable this it will keep a counter of the 6 possible errors the 
.................... //pic can detect.  disabling this will save you ROM, RAM and execution time. 
.................... #ifndef USB_USE_ERROR_COUNTER 
....................    #define USB_USE_ERROR_COUNTER FALSE 
.................... #endif 
....................  
.................... #define USB_PING_PONG_MODE_OFF   0  //no ping pong 
.................... #define USB_PING_PONG_MODE_E0    1  //ping pong endpoint 0 only 
.................... #define USB_PING_PONG_MODE_ON    2  //ping pong all endpoints 
....................  
.................... //NOTE - PING PONG MODE IS NOT SUPPORTED BY CCS! 
.................... #ifndef USB_PING_PONG_MODE 
....................    #define USB_PING_PONG_MODE USB_PING_PONG_MODE_OFF 
.................... #endif 
....................  
.................... #if USB_USE_ERROR_COUNTER 
....................    int ERROR_COUNTER[6]; 
.................... #endif 
....................  
.................... //---pic18fxx5x memory locations 
.................... #byte UFRML   =  0xF66 
.................... #byte UFRMH   =  0xF67 
....................  
.................... #byte UIR     =  0xF68 
.................... #BIT UIR_SOF = UIR.6 
.................... #BIT UIR_STALL = UIR.5 
.................... #BIT UIR_IDLE = UIR.4 
.................... #BIT UIR_TRN = UIR.3 
.................... #BIT UIR_ACTV = UIR.2 
.................... #BIT UIR_UERR = UIR.1 
.................... #BIT UIR_URST = UIR.0 
....................  
.................... #byte UIE     =  0xF69 
.................... #BIT UIE_SOF = UIE.6 
.................... #BIT UIE_STALL = UIE.5 
.................... #BIT UIE_IDLE = UIE.4 
.................... #BIT UIE_TRN = UIE.3 
.................... #BIT UIE_ACTV = UIE.2 
.................... #BIT UIE_UERR = UIE.1 
.................... #BIT UIE_URST = UIE.0 
....................  
.................... #byte UEIR    =  0xF6A 
.................... #byte UEIE    =  0xF6B 
....................  
.................... #byte USTAT   =  0xF6C 
....................  
.................... #byte UCON    =  0xF6D 
.................... #bit UCON_SE0=UCON.5 
.................... #bit UCON_PKTDIS=UCON.4 
.................... #bit UCON_USBEN=UCON.3 
.................... #bit UCON_SUSPND=UCON.1 
....................  
.................... #byte UADDR   =  0xF6E 
....................  
.................... #byte UCFG    =  0xF6F 
....................  
.................... #define  UEP0_LOC 0xF70 
....................  
.................... #byte UEP0    =  0xF70 
....................  
.................... #define USB_Buffer 0x500 
....................  
.................... #byte BD0STAT  =  0x400 
.................... #byte BD0CNT  =  0x401 
.................... #byte BD0ADRL  =  0x402 
.................... #byte BD0ADRJ  =  0x403 
....................  
.................... #define BD0STAT_LOC 0x400 
.................... #define BD0CNT_LOC  0x401 
.................... #define BD0ADRL_LOC 0x402 
.................... #define BD0ADRH_LOC 0x403 
....................  
.................... #define UEP(x) *(UEP0_LOC+x) 
....................  
.................... #if (USB_PING_PONG_MODE==USB_PING_PONG_MODE_OFF) 
....................  #define EP_BDxST_O(x)    *(BD0STAT_LOC + x*8) 
....................  #define EP_BDxCNT_O(x)    *(BD0CNT_LOC + x*8) 
....................  #define EP_BDxADR_O(x)   *(int16 *)(BD0ADRL_LOC + x*8) 
....................  #define EP_BDxST_I(x)    *(BD0STAT_LOC + 4 + x*8) 
....................  #define EP_BDxCNT_I(x)    *(BD0CNT_LOC + 4 + x*8) 
....................  #define EP_BDxADR_I(x)   *(int16 *)(BD0ADRL_LOC + 4 + x*8) 
.................... #else 
.................... #error Right now this driver only supports no ping pong 
.................... #endif 
....................  
.................... //See UEPn (0xF70-0xF7F) 
.................... #define ENDPT_DISABLED	0x00   //endpoint not used 
.................... #define ENDPT_IN_ONLY	0x02    //endpoint supports IN transactions only 
.................... #define ENDPT_OUT_ONLY	0x04    //endpoint supports OUT transactions only 
.................... #define ENDPT_CONTROL	0x06    //Supports IN, OUT and CONTROL transactions - Only use with EP0 
.................... #define ENDPT_NON_CONTROL 0x0E  //Supports both IN and OUT transactions 
....................  
.................... //Define the states that the USB interface can be in 
.................... enum {USB_STATE_DETACHED=0, USB_STATE_ATTACHED=1, USB_STATE_POWERED=2, USB_STATE_DEFAULT=3, 
....................     USB_STATE_ADDRESS=4, USB_STATE_CONFIGURED=5} usb_state=0; 
....................  
.................... //--BDendST has their PIDs upshifed 2 
.................... #define USB_PIC_PID_IN       0x24  //device to host transactions 
.................... #define USB_PIC_PID_OUT      0x04  //host to device transactions 
.................... #define USB_PIC_PID_SETUP    0x34  //host to device setup transaction 
....................  
.................... #define USTAT_IN_E0        4 
.................... #define USTAT_OUT_SETUP_E0 0 
....................  
.................... #define __USB_UIF_RESET    0x01 
.................... #define __USB_UIF_ERROR    0x02 
.................... #define __USB_UIF_ACTIVE   0x04 
.................... #define __USB_UIF_TOKEN    0x08 
.................... #define __USB_UIF_IDLE     0x10 
.................... #define __USB_UIF_STALL    0x20 
.................... #define __USB_UIF_SOF      0x40 
....................  
.................... #if USB_USE_ERROR_COUNTER 
....................  #define STANDARD_INTS 0x3F 
.................... #else 
....................  #define STANDARD_INTS 0x3D 
.................... #endif 
....................  
.................... #define __USB_UCFG_UTEYE   0x80 
.................... #define __USB_UCFG_UOEMON  0x40 
.................... #define __USB_UCFG_UPUEN   0x10 
.................... #define __USB_UCFG_UTRDIS  0x08 
.................... #define __USB_UCFG_FSEN    0x04 
....................  
.................... #if USB_USE_FULL_SPEED 
....................    #define __UCFG_VAL_ENABLED__ (__USB_UCFG_UPUEN | __USB_UCFG_FSEN | USB_PING_PONG_MODE) 
.................... #else 
....................    #define __UCFG_VAL_ENABLED__ (__USB_UCFG_UPUEN | USB_PING_PONG_MODE); 
.................... #endif 
....................  
.................... #define __UCFG_VAL_DISABLED__ 0x08 
....................  
.................... char usb_ep0_rx_buffer[USB_MAX_EP0_PACKET_LENGTH]; 
.................... #locate usb_ep0_rx_buffer=0x500 
....................  
.................... char usb_ep0_tx_buffer[USB_MAX_EP0_PACKET_LENGTH]; 
.................... #locate usb_ep0_tx_buffer=0x500+USB_MAX_EP0_PACKET_LENGTH 
....................  
.................... int8 __setup_0_tx_size; 
....................  
.................... //interrupt handler, specific to PIC18Fxx5x peripheral only 
.................... void usb_handle_interrupt(); 
.................... void usb_isr_rst(); 
.................... void usb_isr_uerr(); 
.................... void usb_isr_sof(void); 
.................... void usb_isr_activity(); 
.................... void usb_isr_uidle(); 
.................... void usb_isr_tok_dne(); 
.................... void usb_isr_stall(void); 
.................... void usb_init_ep0_setup(void); 
....................  
.................... //following functions standard part of CCS PIC USB driver, and used by usb.c 
.................... void usb_init(); 
.................... void usb_detach(); 
.................... int1 usb_put_packet(int endpoint, int * ptr, int16 len, USB_DTS_BIT tgl); 
.................... int1 usb_flush_in(int8 endpoint, int16 len, USB_DTS_BIT tgl); //marks the transmit buffer as ready for transmission 
.................... int16 usb_get_packet(int8 endpoint, int8 * ptr, int16 max); 
.................... int16 usb_rx_packet_size(int8 endpoint); 
.................... int16 usb_get_packet_buffer(int8 endpoint, int8 *ptr, int16 max); 
.................... void usb_flush_out(int8 endpoint, USB_DTS_BIT tgl); 
.................... void usb_stall_ep(int8 endpoint); 
.................... void usb_unstall_ep(int8 endpoint); 
.................... int1 usb_endpoint_stalled(int8 endpoint); 
.................... void usb_set_address(int8 address); 
.................... void usb_set_configured(int config); 
.................... void usb_disable_endpoints(void); 
....................  
.................... //// BEGIN User Functions: 
....................  
.................... /****************************************************************************** 
.................... /* usb_attached() 
.................... /* 
.................... /* Summary: Returns TRUE if the device is attached to a USB cable 
.................... /* 
.................... /*****************************************************************************/ 
.................... #if USB_CON_SENSE_PIN 
....................  #define usb_attached() input(USB_CON_SENSE_PIN) 
.................... #else 
....................  #define usb_attached() TRUE 
.................... #endif 
....................  
.................... /****************************************************************************** 
.................... /* usb_detach() 
.................... /* 
.................... /* Summary: Remove the D+/D- lines from the USB bus.  Basically, disable USB. 
.................... /* 
.................... /*****************************************************************************/ 
.................... void usb_detach(void) {  //done 
....................    UCON=0;  //disable USB hardware 
*
0C60:  CLRF   F6D
....................    UIE=0;   //disable USB interrupts 
0C62:  CLRF   F69
....................    UCFG = __UCFG_VAL_DISABLED__; 
0C64:  MOVLW  08
0C66:  MOVWF  F6F
....................    set_tris_c(*0xF94 | 0x30); 
0C68:  MOVF   F94,W
0C6A:  IORLW  30
0C6C:  MOVWF  F94
....................    usb_state=USB_STATE_DETACHED; 
0C6E:  CLRF   25
0C70:  CLRF   18
0C72:  BTFSC  FF2.7
0C74:  BSF    18.7
0C76:  BCF    FF2.7
....................    usb_token_reset();              //clear the chapter9 stack 
0C78:  CALL   0204
0C7C:  BTFSC  18.7
0C7E:  BSF    FF2.7
....................    __usb_kbhit_status=0; 
0C80:  CLRF   24
0C82:  CLRF   23
.................... } 
0C84:  GOTO   0CD0 (RETURN)
....................  
.................... /****************************************************************************** 
.................... /* usb_attach() 
.................... /* 
.................... /* Summary: Attach the D+/D- lines to the USB bus.  Enable the USB peripheral. 
.................... /* 
.................... /* You should wait until UCON_SE0 is clear before enabling reset/idle interrupt 
.................... /* 
.................... /*****************************************************************************/ 
.................... void usb_attach(void) { 
0C88:  CLRF   18
0C8A:  BTFSC  FF2.7
0C8C:  BSF    18.7
0C8E:  BCF    FF2.7
....................    usb_token_reset(); 
0C90:  CALL   0204
0C94:  BTFSC  18.7
0C96:  BSF    FF2.7
....................     UCON = 0; 
0C98:  CLRF   F6D
....................    UCFG = __UCFG_VAL_ENABLED__; 
0C9A:  MOVLW  14
0C9C:  MOVWF  F6F
....................     UIE = 0;                                // Mask all USB interrupts 
0C9E:  CLRF   F69
....................     UCON_USBEN = 1;                     // Enable module & attach to bus 
0CA0:  BSF    F6D.3
....................     usb_state = USB_STATE_ATTACHED;      // Defined in usbmmap.c & .h 
0CA2:  MOVLW  01
0CA4:  MOVWF  25
.................... } 
0CA6:  GOTO   0CB0 (RETURN)
....................  
.................... /***************************************************************************** 
.................... /* usb_init_cs() 
.................... /* 
.................... /* Summary: Resets and initalizes USB peripheral.  Does not attach the peripheral 
.................... /*          to the USB bus.  See usb_attach() and usb_task() on how to 
.................... /*          attach to the USB bus. 
.................... /* 
.................... /*          You must call this before any other USB code. 
.................... /* 
.................... /*          NOTE: an alternative function, usb_init(), is provided that 
.................... /*                initializes the USB and then connects. 
.................... /* 
.................... /*****************************************************************************/ 
.................... #define usb_init_cs usb_detach 
....................  
.................... /***************************************************************************** 
.................... /* usb_task() 
.................... /* 
.................... /* Summary: Keeps an eye on the connection sense pin to determine if we are 
.................... /*          attached to a USB cable or not.  If we are attached to a USB cable, 
.................... /*          initialize the USB peripheral if needed.  If we are disconnected 
.................... /*          from the USB cable, disable the USB peripheral. 
.................... /* 
.................... /*          NOTE: If you are not using a connection sense pin, will automatically 
.................... /*                enable the USB peripheral. 
.................... /* 
.................... /*          NOTE: this enables interrupts once the USB peripheral is ready 
.................... /* 
.................... /*****************************************************************************/ 
.................... void usb_task(void) { 
....................    if (usb_attached()) { 
....................       if (UCON_USBEN==0) { 
0CAA:  BTFSC  F6D.3
0CAC:  BRA    0CB0
....................          debug_usb(debug_putc, "\r\n\nUSB TASK: ATTACH"); 
....................          usb_attach(); 
0CAE:  BRA    0C88
....................       } 
....................    } 
....................    else { 
....................       if (UCON_USBEN==1)  { 
....................          debug_usb(debug_putc, "\r\n\nUSB TASK: DE-ATTACH"); 
....................          usb_detach(); 
....................       } 
....................    } 
....................  
....................    if ((usb_state == USB_STATE_ATTACHED)&&(!UCON_SE0)) { 
0CB0:  DECFSZ 25,W
0CB2:  BRA    0CCA
0CB4:  BTFSC  F6D.5
0CB6:  BRA    0CCA
....................       UIR=0; 
0CB8:  CLRF   F68
....................       UIE=0; 
0CBA:  CLRF   F69
....................       enable_interrupts(INT_USB); 
0CBC:  BSF    FA0.5
....................       enable_interrupts(GLOBAL); 
0CBE:  MOVLW  C0
0CC0:  IORWF  FF2,F
....................       UIE=__USB_UIF_IDLE | __USB_UIF_RESET;  //enable IDLE and RESET USB interrupt 
0CC2:  MOVLW  11
0CC4:  MOVWF  F69
....................       usb_state=USB_STATE_POWERED; 
0CC6:  MOVLW  02
0CC8:  MOVWF  25
....................       debug_usb(debug_putc, "\r\n\nUSB TASK: POWERED"); 
....................    } 
.................... } 
0CCA:  GOTO   0CD2 (RETURN)
....................  
.................... /***************************************************************************** 
.................... /* usb_init() 
.................... /* 
.................... /* Summary: Resets and initalizes USB hardware.  You must call this first before 
.................... /*          using code.  Will attach the USB periperhal to the USB bus. 
.................... /* 
.................... /*          NOTE: If you are using a connection sense pin, this will wait in 
.................... /*                an infinite loop until the device is connected to a USB cable. 
.................... /* 
.................... /*          NOTE: If you are not using a connection sense pin, this will wait 
.................... /*                in an infinte loop until the SE0 condition clears, which usually 
.................... /*                doesn't take long 
.................... /* 
.................... /*          NOTE: this enables interrupts. 
.................... /* 
.................... /*****************************************************************************/ 
.................... void usb_init(void) { 
....................    usb_init_cs(); 
0CCE:  BRA    0C60
....................  
....................    do { 
....................       usb_task(); 
0CD0:  BRA    0CAA
....................    } while (usb_state != USB_STATE_POWERED); 
0CD2:  MOVF   25,W
0CD4:  SUBLW  02
0CD6:  BNZ   0CD0
.................... } 
0CD8:  GOTO   0FB2 (RETURN)
....................  
....................  
.................... /************************************************************** 
.................... /* usb_flush_in() 
.................... /* 
.................... /* Input: endpoint - which endpoint to mark for transfer 
.................... /*        len - length of data that is being tramsferred 
.................... /*        tgl - Data toggle synchronization for this packet 
.................... /* 
.................... /* Output: TRUE if success, FALSE if error (we don't control the endpoint) 
.................... /* 
.................... /* Summary: Marks the endpoint ready for transmission.  You must 
.................... /*          have already loaded the endpoint buffer with data. 
.................... /*          (IN is PIC -> PC) 
.................... /***************************************************************/ 
.................... int1 usb_flush_in(int8 endpoint, int16 len, USB_DTS_BIT tgl) { 
....................    int8 i; 
....................  
....................    debug_usb(debug_putc,"\r\nPUT %X %U %LU",endpoint, tgl, len); 
....................  
....................    i=EP_BDxST_I(endpoint); 
*
09E8:  MOVF   x99,W
09EA:  MULLW  08
09EC:  MOVF   FF3,W
09EE:  ADDLW  04
09F0:  MOVWF  01
09F2:  MOVLW  04
09F4:  MOVWF  03
09F6:  BTFSC  FD8.0
09F8:  INCF   03,F
09FA:  MOVFF  01,FE9
09FE:  MOVFF  03,FEA
0A02:  MOVFF  FEF,9D
....................    if (!bit_test(i,7)) { 
0A06:  BTFSC  x9D.7
0A08:  BRA    0AC0
....................  
....................       EP_BDxCNT_I(endpoint)=len; 
0A0A:  MOVF   x99,W
0A0C:  MULLW  08
0A0E:  MOVF   FF3,W
0A10:  ADDLW  05
0A12:  MOVWF  01
0A14:  MOVLW  04
0A16:  MOVWF  03
0A18:  BTFSC  FD8.0
0A1A:  INCF   03,F
0A1C:  MOVFF  01,FE9
0A20:  MOVFF  03,FEA
0A24:  MOVFF  9A,FEF
....................  
....................      debug_display_ram(len, EP_BDxADR_I(endpoint)); 
....................  
....................      #if USB_IGNORE_TX_DTS 
....................       i=0x80; 
....................      #else 
....................       if (tgl == USB_DTS_TOGGLE) { 
0A28:  MOVF   x9C,W
0A2A:  SUBLW  02
0A2C:  BNZ   0A5A
....................          i=EP_BDxST_I(endpoint); 
0A2E:  MOVF   x99,W
0A30:  MULLW  08
0A32:  MOVF   FF3,W
0A34:  ADDLW  04
0A36:  MOVWF  01
0A38:  MOVLW  04
0A3A:  MOVWF  03
0A3C:  BTFSC  FD8.0
0A3E:  INCF   03,F
0A40:  MOVFF  01,FE9
0A44:  MOVFF  03,FEA
0A48:  MOVFF  FEF,9D
....................          if (bit_test(i,6)) 
0A4C:  BTFSS  x9D.6
0A4E:  BRA    0A54
....................             tgl=USB_DTS_DATA0;  //was DATA1, goto DATA0 
0A50:  CLRF   x9C
....................          else 
0A52:  BRA    0A58
....................             tgl=USB_DTS_DATA1;  //was DATA0, goto DATA1 
0A54:  MOVLW  01
0A56:  MOVWF  x9C
....................       } 
....................       else if (tgl == USB_DTS_USERX) { 
0A58:  BRA    0A80
0A5A:  MOVF   x9C,W
0A5C:  SUBLW  04
0A5E:  BNZ   0A80
....................          i=EP_BDxST_O(endpoint); 
0A60:  MOVF   x99,W
0A62:  MULLW  08
0A64:  MOVFF  FF3,01
0A68:  MOVLW  04
0A6A:  MOVFF  01,FE9
0A6E:  MOVWF  FEA
0A70:  MOVFF  FEF,9D
....................          if (bit_test(i,6)) 
0A74:  BTFSS  x9D.6
0A76:  BRA    0A7E
....................             tgl=USB_DTS_DATA1; 
0A78:  MOVLW  01
0A7A:  MOVWF  x9C
....................          else 
0A7C:  BRA    0A80
....................             tgl=USB_DTS_DATA0; 
0A7E:  CLRF   x9C
....................       } 
....................       if (tgl == USB_DTS_DATA1) { 
0A80:  DECFSZ x9C,W
0A82:  BRA    0A8A
....................          i=0xC8;  //DATA1, UOWN 
0A84:  MOVLW  C8
0A86:  MOVWF  x9D
....................       } 
....................       else if (tgl == USB_DTS_DATA0) { 
0A88:  BRA    0A92
0A8A:  MOVF   x9C,F
0A8C:  BNZ   0A92
....................          i=0x88; //DATA0, UOWN 
0A8E:  MOVLW  88
0A90:  MOVWF  x9D
....................       } 
....................      #endif 
....................  
....................       //set BC8 and BC9 
....................       if (bit_test(len,8)) {bit_set(i,0);} 
0A92:  BTFSC  x9B.0
0A94:  BSF    x9D.0
....................       if (bit_test(len,9)) {bit_set(i,1);} 
0A96:  BTFSC  x9B.1
0A98:  BSF    x9D.1
....................  
....................       debug_usb(debug_putc," %X",i); 
....................  
....................       EP_BDxST_I(endpoint)=i;//save changes 
0A9A:  MOVF   x99,W
0A9C:  MULLW  08
0A9E:  MOVF   FF3,W
0AA0:  ADDLW  04
0AA2:  MOVWF  01
0AA4:  MOVLW  04
0AA6:  MOVWF  03
0AA8:  BTFSC  FD8.0
0AAA:  INCF   03,F
0AAC:  MOVFF  01,FE9
0AB0:  MOVFF  03,FEA
0AB4:  MOVFF  9D,FEF
....................  
....................       return(1); 
0AB8:  MOVLW  01
0ABA:  MOVWF  01
0ABC:  BRA    0AC4
....................    } 
....................     else { 
0ABE:  BRA    0AC0
....................          debug_usb(debug_putc,"\r\nPUT ERR"); 
....................     } 
....................    return(0); 
0AC0:  MOVLW  00
0AC2:  MOVWF  01
.................... } 
0AC4:  RETLW  00
....................  
.................... /******************************************************************************* 
.................... /* usb_put_packet(endpoint,*ptr,len,toggle) 
.................... /* 
.................... /* Input: endpoint - endpoint to send packet to 
.................... /*        ptr - points to data to send 
.................... /*        len - amount of data to send 
.................... /*        toggle - whether to send data with a DATA0 pid, a DATA1 pid, or toggle from the last DATAx pid. 
.................... /* 
.................... /* Output: TRUE if data was sent correctly, FALSE if it was not.  The only reason it will 
.................... /*         return FALSE is if because the TX buffer is still full from the last time you 
.................... /*         tried to send a packet. 
.................... /* 
.................... /* Summary: Sends one packet out the EP to the host.  Notice that there is a difference 
.................... /*          between a packet and a message.  If you wanted to send a 512 byte message you 
.................... /*          would accomplish this by sending 8 64-byte packets, followed by a 0 length packet. 
.................... /*          If the last (or only packet) being sent is less than the max packet size defined 
.................... /*          in your descriptor then you do not need to send a 0 length packet to identify 
.................... /*          an end of message. 
.................... /* 
.................... /*          usb_puts() (provided in usb.c) will send a multi-packet message correctly. 
.................... /* 
.................... /********************************************************************************/ 
.................... int1 usb_put_packet(int8 endpoint, int8 * ptr, int16 len, USB_DTS_BIT tgl) { //done 
....................    int16 j; 
....................    int8 i; 
....................    int8 * buff_add; 
....................  
....................    i=EP_BDxST_I(endpoint); 
....................    if (!bit_test(i,7)) { 
....................  
....................       buff_add=EP_BDxADR_I(endpoint); 
....................  
....................       for (j=0;j<len;j++) { 
....................          *buff_add=*ptr; 
....................          buff_add++; 
....................          ptr++; 
....................       } 
....................  
....................       return(usb_flush_in(endpoint, len, tgl)); 
....................     } 
....................     else { 
....................         debug_usb(debug_putc,"\r\nPUT ERR"); 
....................     } 
....................     return(0); 
.................... } 
....................  
.................... /// END User Functions 
....................  
....................  
.................... /// BEGIN Hardware layer functions required by USB.C 
....................  
.................... /************************************************************** 
.................... /* usb_flush_out() 
.................... /* 
.................... /* Input: endpoint - which endpoint to mark for transfer 
.................... /*        tgl - Data toggle synchronization to expect in the next packet 
.................... /* 
.................... /* Output: NONE 
.................... /* 
.................... /* Summary: Clears the previously received packet, and then marks this 
.................... /*          endpoint's receive buffer as ready for more data. 
.................... /*          (OUT is PC -> PIC) 
.................... /***************************************************************/ 
.................... void usb_flush_out(int8 endpoint, USB_DTS_BIT tgl) { 
....................    int8 i; 
....................    int16 len; 
....................  
....................      #if USB_IGNORE_RX_DTS 
....................       if (tgl == USB_DTS_STALL) { 
....................          debug_usb(debug_putc, '*'); 
....................          i=0x84; 
....................          EP_BDxST_I(endpoint)=0x84; 
....................          return; 
....................       } 
....................       else 
....................          i=0x80; 
....................      #else 
....................       i=EP_BDxST_O(endpoint); 
*
0902:  MOVF   x99,W
0904:  MULLW  08
0906:  MOVFF  FF3,01
090A:  MOVLW  04
090C:  MOVFF  01,FE9
0910:  MOVWF  FEA
0912:  MOVFF  FEF,9B
....................       if (tgl == USB_DTS_TOGGLE) { 
0916:  MOVF   x9A,W
0918:  SUBLW  02
091A:  BNZ   0928
....................          if (bit_test(i,6)) 
091C:  BTFSS  x9B.6
091E:  BRA    0924
....................             tgl=USB_DTS_DATA0;  //was DATA1, goto DATA0 
0920:  CLRF   x9A
....................          else 
0922:  BRA    0928
....................             tgl=USB_DTS_DATA1;  //was DATA0, goto DATA1 
0924:  MOVLW  01
0926:  MOVWF  x9A
....................       } 
....................       if (tgl == USB_DTS_STALL) { 
0928:  MOVF   x9A,W
092A:  SUBLW  03
092C:  BNZ   0952
....................          i=0x84; 
092E:  MOVLW  84
0930:  MOVWF  x9B
....................          EP_BDxST_I(endpoint)=0x84; //stall both in and out endpoints 
0932:  MOVF   x99,W
0934:  MULLW  08
0936:  MOVF   FF3,W
0938:  ADDLW  04
093A:  MOVWF  01
093C:  MOVLW  04
093E:  MOVWF  03
0940:  BTFSC  FD8.0
0942:  INCF   03,F
0944:  MOVFF  01,FE9
0948:  MOVFF  03,FEA
094C:  MOVLW  84
094E:  MOVWF  FEF
....................       } 
....................       else if (tgl == USB_DTS_DATA1) { 
0950:  BRA    0964
0952:  DECFSZ x9A,W
0954:  BRA    095C
....................          i=0xC8;  //DATA1, UOWN 
0956:  MOVLW  C8
0958:  MOVWF  x9B
....................       } 
....................       else if (tgl == USB_DTS_DATA0) { 
095A:  BRA    0964
095C:  MOVF   x9A,F
095E:  BNZ   0964
....................          i=0x88; //DATA0, UOWN 
0960:  MOVLW  88
0962:  MOVWF  x9B
....................       } 
....................      #endif 
....................  
....................    bit_clear(__usb_kbhit_status,endpoint); 
0964:  CLRF   03
0966:  MOVLW  01
0968:  MOVWF  02
096A:  MOVF   x99,W
096C:  MOVWF  00
096E:  BZ    097A
0970:  BCF    FD8.0
0972:  RLCF   02,F
0974:  RLCF   03,F
0976:  DECFSZ 00,F
0978:  BRA    0970
097A:  MOVF   02,W
097C:  XORLW  FF
097E:  MOVWF  00
0980:  MOVLW  FF
0982:  XORWF  03,F
0984:  MOVF   00,W
0986:  ANDWF  23,F
0988:  MOVF   03,W
098A:  ANDWF  24,F
....................  
....................    len=usb_ep_rx_size[endpoint]; 
098C:  BCF    FD8.0
098E:  RLCF   x99,W
0990:  CLRF   03
0992:  MOVFF  FF2,9E
0996:  BCF    FF2.7
0998:  CALL   00BE
099C:  TBLRD*+
099E:  MOVFF  FF5,03
09A2:  BTFSC  x9E.7
09A4:  BSF    FF2.7
09A6:  MOVWF  x9C
09A8:  MOVFF  03,9D
....................    EP_BDxCNT_O(endpoint)=len; 
09AC:  MOVF   x99,W
09AE:  MULLW  08
09B0:  MOVF   FF3,W
09B2:  ADDLW  01
09B4:  MOVWF  01
09B6:  MOVLW  04
09B8:  MOVWF  03
09BA:  BTFSC  FD8.0
09BC:  INCF   03,F
09BE:  MOVFF  01,FE9
09C2:  MOVFF  03,FEA
09C6:  MOVFF  9C,FEF
....................    if (bit_test(len,8)) {bit_set(i,0);} 
09CA:  BTFSC  x9D.0
09CC:  BSF    x9B.0
....................    if (bit_test(len,9)) {bit_set(i,1);} 
09CE:  BTFSC  x9D.1
09D0:  BSF    x9B.1
....................  
....................  
....................    EP_BDxST_O(endpoint)=i; 
09D2:  MOVF   x99,W
09D4:  MULLW  08
09D6:  MOVFF  FF3,01
09DA:  MOVLW  04
09DC:  MOVFF  01,FE9
09E0:  MOVWF  FEA
09E2:  MOVFF  9B,FEF
.................... } 
09E6:  RETLW  00
....................  
.................... int16 usb_rx_packet_size(int8 endpoint) { 
....................    return(EP_BDxCNT_O(endpoint)); 
.................... } 
....................  
.................... /******************************************************************************* 
.................... /* usb_get_packet_buffer(endpoint, *ptr, max) 
.................... /* 
.................... /* Input: endpoint - endpoint to get data from 
.................... /*        ptr - where to save data to local PIC RAM 
.................... /*        max - max amount of data to receive from buffer 
.................... /* 
.................... /* Output: the amount of data taken from the buffer. 
.................... /* 
.................... /* Summary: Gets a packet of data from the USB buffer and puts into local PIC RAM. 
.................... /*          Does not mark the endpoint as ready for more data.  Once you are 
.................... /*          done with data, call usb_flush_out() to mark the endpoint ready 
.................... /*          to receive more data. 
.................... /* 
.................... /********************************************************************************/ 
.................... int16 usb_get_packet_buffer(int8 endpoint, int8 *ptr, int16 max) { 
....................    int8 * al; 
....................    int8 st; 
....................    int16 i; 
....................  
....................    al=EP_BDxADR_O(endpoint); 
*
0CDC:  MOVF   x8B,W
0CDE:  MULLW  08
0CE0:  MOVF   FF3,W
0CE2:  ADDLW  02
0CE4:  MOVWF  01
0CE6:  MOVLW  04
0CE8:  MOVWF  03
0CEA:  BTFSC  FD8.0
0CEC:  INCF   03,F
0CEE:  MOVFF  01,FE9
0CF2:  MOVFF  03,FEA
0CF6:  MOVFF  FEC,03
0CFA:  MOVF   FED,F
0CFC:  MOVFF  FEF,90
0D00:  MOVFF  03,91
....................    i=EP_BDxCNT_O(endpoint); 
0D04:  MOVF   x8B,W
0D06:  MULLW  08
0D08:  MOVF   FF3,W
0D0A:  ADDLW  01
0D0C:  MOVWF  01
0D0E:  MOVLW  04
0D10:  MOVWF  03
0D12:  BTFSC  FD8.0
0D14:  INCF   03,F
0D16:  MOVFF  01,FE9
0D1A:  MOVFF  03,FEA
0D1E:  MOVF   FEF,W
0D20:  CLRF   03
0D22:  MOVWF  x93
0D24:  MOVFF  03,94
....................    st=EP_BDxST_O(endpoint); 
0D28:  MOVF   x8B,W
0D2A:  MULLW  08
0D2C:  MOVFF  FF3,01
0D30:  MOVLW  04
0D32:  MOVFF  01,FE9
0D36:  MOVWF  FEA
0D38:  MOVFF  FEF,92
....................  
....................    //read BC8 and BC9 
....................    if (bit_test(st,0)) {bit_set(i,8);} 
0D3C:  BTFSC  x92.0
0D3E:  BSF    x94.0
....................    if (bit_test(st,1)) {bit_set(i,9);} 
0D40:  BTFSC  x92.1
0D42:  BSF    x94.1
....................  
....................    if (i<max) {max=i;} 
0D44:  MOVF   x94,W
0D46:  SUBWF  x8F,W
0D48:  BNC   0D5A
0D4A:  BNZ   0D52
0D4C:  MOVF   x8E,W
0D4E:  SUBWF  x93,W
0D50:  BC    0D5A
0D52:  MOVFF  94,8F
0D56:  MOVFF  93,8E
....................  
....................    i=0; 
0D5A:  CLRF   x94
0D5C:  CLRF   x93
....................  
....................    while (i<max) { 
0D5E:  MOVF   x94,W
0D60:  SUBWF  x8F,W
0D62:  BNC   0D98
0D64:  BNZ   0D6C
0D66:  MOVF   x8E,W
0D68:  SUBWF  x93,W
0D6A:  BC    0D98
....................        *ptr=*al; 
0D6C:  MOVFF  90,FE9
0D70:  MOVFF  91,FEA
0D74:  MOVFF  FEF,97
0D78:  MOVFF  8D,FEA
0D7C:  MOVFF  8C,FE9
0D80:  MOVFF  97,FEF
....................        ptr++; 
0D84:  INCF   x8C,F
0D86:  BTFSC  FD8.2
0D88:  INCF   x8D,F
....................        al++; 
0D8A:  INCF   x90,F
0D8C:  BTFSC  FD8.2
0D8E:  INCF   x91,F
....................        i++; 
0D90:  INCF   x93,F
0D92:  BTFSC  FD8.2
0D94:  INCF   x94,F
....................    } 
0D96:  BRA    0D5E
....................  
....................    return(max); 
0D98:  MOVFF  8E,01
0D9C:  MOVFF  8F,02
.................... } 
0DA0:  GOTO   0DBA (RETURN)
....................  
.................... /******************************************************************************* 
.................... /* usb_get_packet(endpoint, *ptr, max) 
.................... /* 
.................... /* Input: endpoint - endpoint to get data from 
.................... /*        ptr - where to save data to local PIC RAM 
.................... /*        max - max amount of data to receive from buffer 
.................... /* 
.................... /* Output: the amount of data taken from the buffer. 
.................... /* 
.................... /*         NOTE - IF THERE IS NO PACKET TO GET YOU WILL GET INVALID RESULTS! 
.................... /*                VERIFY WITH USB_KBHIT() BEFORE YOU CALL USB_GET_PACKET()! 
.................... /* 
.................... /* Summary: Gets a packet of data from the USB buffer and puts into local PIC RAM. 
.................... /*          Until you call usb_get_packet() the data will sit in the endpoint 
.................... /*          buffer and the PC will get NAKs when it tries to write more data 
.................... /*          to the endpoint. 
.................... /* 
.................... /********************************************************************************/ 
.................... int16 usb_get_packet(int8 endpoint, int8 * ptr, int16 max) { 
....................  
....................    max=usb_get_packet_buffer(endpoint,ptr,max); 
0DA4:  MOVFF  86,8B
0DA8:  MOVFF  88,8D
0DAC:  MOVFF  87,8C
0DB0:  MOVFF  8A,8F
0DB4:  MOVFF  89,8E
0DB8:  BRA    0CDC
0DBA:  MOVFF  02,8A
0DBE:  MOVFF  01,89
0DC2:  CLRF   18
0DC4:  BTFSC  FF2.7
0DC6:  BSF    18.7
0DC8:  BCF    FF2.7
....................    usb_flush_out(endpoint, USB_DTS_TOGGLE); 
0DCA:  MOVFF  86,99
0DCE:  MOVLW  02
0DD0:  MOVWF  x9A
0DD2:  RCALL  0902
0DD4:  BTFSC  18.7
0DD6:  BSF    FF2.7
....................  
....................    return(max); 
0DD8:  MOVFF  89,01
0DDC:  MOVFF  8A,02
.................... } 
0DE0:  GOTO   0E88 (RETURN)
....................  
.................... /******************************************************************************* 
.................... /* usb_tbe(endpoint) 
.................... /* 
.................... /* Input: endpoint - endpoint to check 
.................... /*        ptr - where to save data to local PIC RAM 
.................... /*        max - max amount of data to receive from buffer 
.................... /* 
.................... /* Output: returns TRUE if this endpoint's IN buffer (PIC-PC) is empty and ready 
.................... /*         returns FALSE if this endpoint's IN buffer is still processing the last 
.................... /*         transmit or if this endpoint is invalid. 
.................... /* 
.................... /********************************************************************************/ 
.................... int8 usb_tbe(int8 endpoint) { 
....................    int8 st; 
....................    st=EP_BDxST_I(endpoint); 
....................    if (!bit_test(st,7)) 
....................       return(TRUE); 
....................    return(FALSE); 
.................... } 
....................  
.................... /******************************************************************************* 
.................... /* usb_stall_ep(endpoint,direction) 
.................... /* 
.................... /* Input: endpoint - endpoint to stall. 
.................... /*                   top most bit indicates direction (set is IN, clear is OUT) 
.................... /* 
.................... /* Summary: Stalls specified endpoint.  If endpoint is stalled it will send STALL packet 
.................... /*          if the host tries to access this endpoint's buffer. 
.................... /* 
.................... /* 
.................... /* NOTE: WE ASSUME ENDPOINT IS VALID.  USB.C SHOULD CHECK THIS 
.................... /* 
.................... /********************************************************************************/ 
.................... void usb_stall_ep(int8 endpoint) {  //done 
....................    int1 direction; 
....................    direction=bit_test(endpoint,7); 
*
07D0:  BCF    x9A.0
07D2:  BTFSC  x99.7
07D4:  BSF    x9A.0
....................    endpoint&=0x7F; 
07D6:  BCF    x99.7
....................    if (direction) { 
07D8:  BTFSS  x9A.0
07DA:  BRA    07FC
....................       EP_BDxST_I(endpoint)=0x84; 
07DC:  MOVF   x99,W
07DE:  MULLW  08
07E0:  MOVF   FF3,W
07E2:  ADDLW  04
07E4:  MOVWF  01
07E6:  MOVLW  04
07E8:  MOVWF  03
07EA:  BTFSC  FD8.0
07EC:  INCF   03,F
07EE:  MOVFF  01,FE9
07F2:  MOVFF  03,FEA
07F6:  MOVLW  84
07F8:  MOVWF  FEF
....................    } 
....................    else { 
07FA:  BRA    0810
....................       EP_BDxST_O(endpoint)=0x84; 
07FC:  MOVF   x99,W
07FE:  MULLW  08
0800:  MOVFF  FF3,01
0804:  MOVLW  04
0806:  MOVFF  01,FE9
080A:  MOVWF  FEA
080C:  MOVLW  84
080E:  MOVWF  FEF
....................    } 
.................... } 
0810:  GOTO   0898 (RETURN)
....................  
.................... /******************************************************************************* 
.................... /* usb_unstall_ep(endpoint, direction) 
.................... /* 
.................... /* Input: endpoint - endpoint to un-stall. 
.................... /*                   top most bit indicates direction (set is IN, clear is OUT) 
.................... /* 
.................... /* Summary: Un-stalls endpoint. 
.................... /* 
.................... /* NOTE: WE ASSUME ENDPOINT IS VALID.  USB.C SHOULD CHECK THIS 
.................... /********************************************************************************/ 
.................... void usb_unstall_ep(int8 endpoint) {   //done 
....................    int1 direction; 
....................    direction=bit_test(endpoint,7); 
*
078E:  BCF    x9A.0
0790:  BTFSC  x99.7
0792:  BSF    x9A.0
....................    endpoint&=0x7F; 
0794:  BCF    x99.7
....................    if (direction) { 
0796:  BTFSS  x9A.0
0798:  BRA    07BA
....................       #if USB_IGNORE_RX_DTS 
....................       EP_BDxST_I(endpoint)=0x80; 
....................       #else 
....................       EP_BDxST_I(endpoint)=0x88; 
079A:  MOVF   x99,W
079C:  MULLW  08
079E:  MOVF   FF3,W
07A0:  ADDLW  04
07A2:  MOVWF  01
07A4:  MOVLW  04
07A6:  MOVWF  03
07A8:  BTFSC  FD8.0
07AA:  INCF   03,F
07AC:  MOVFF  01,FE9
07B0:  MOVFF  03,FEA
07B4:  MOVLW  88
07B6:  MOVWF  FEF
....................       #endif 
....................    } 
....................    else { 
07B8:  BRA    07CC
....................       EP_BDxST_O(endpoint)=0x00; 
07BA:  MOVF   x99,W
07BC:  MULLW  08
07BE:  MOVFF  FF3,01
07C2:  MOVLW  04
07C4:  MOVFF  01,FE9
07C8:  MOVWF  FEA
07CA:  CLRF   FEF
....................    } 
.................... } 
07CC:  GOTO   088C (RETURN)
....................  
.................... /******************************************************************************* 
.................... /* usb_endpoint_stalled(endpoint) 
.................... /* 
.................... /* Input: endpoint - endpoint to check 
.................... /*                   top most bit indicates direction (set is IN, clear is OUT) 
.................... /* 
.................... /* Output: returns a TRUE if endpoint is stalled, FALSE if it is not. 
.................... /* 
.................... /* Summary: Looks to see if an endpoint is stalled, or not.  Does not look to 
.................... /*          see if endpoint has been issued a STALL, just whether or not it is 
.................... /*          configured to STALL on the next packet.  See Set_Feature and Clear_Feature 
.................... /*          Chapter 9 requests. 
.................... /* 
.................... /* NOTE: WE ASSUME ENDPOINT IS VALID.  USB.C SHOULD CHECK THIS 
.................... /********************************************************************************/ 
.................... int1 usb_endpoint_stalled(int8 endpoint) {   //done 
....................    int1 direction; 
....................    int8 st; 
....................    direction=bit_test(endpoint,7); 
*
0814:  BCF    x9A.0
0816:  BTFSC  x99.7
0818:  BSF    x9A.0
....................    endpoint&=0x7F; 
081A:  BCF    x99.7
....................    if (direction) { 
081C:  BTFSS  x9A.0
081E:  BRA    0840
....................       st=EP_BDxST_I(endpoint); 
0820:  MOVF   x99,W
0822:  MULLW  08
0824:  MOVF   FF3,W
0826:  ADDLW  04
0828:  MOVWF  01
082A:  MOVLW  04
082C:  MOVWF  03
082E:  BTFSC  FD8.0
0830:  INCF   03,F
0832:  MOVFF  01,FE9
0836:  MOVFF  03,FEA
083A:  MOVFF  FEF,9B
....................    } 
....................    else { 
083E:  BRA    0854
....................       st=EP_BDxST_O(endpoint); 
0840:  MOVF   x99,W
0842:  MULLW  08
0844:  MOVFF  FF3,01
0848:  MOVLW  04
084A:  MOVFF  01,FE9
084E:  MOVWF  FEA
0850:  MOVFF  FEF,9B
....................    } 
....................    return(bit_test(st,7) && bit_test(st,2)); 
0854:  BTFSS  x9B.7
0856:  BRA    085C
0858:  BTFSC  x9B.2
085A:  BRA    0860
085C:  MOVLW  00
085E:  BRA    0862
0860:  MOVLW  01
0862:  MOVWF  01
.................... } 
0864:  GOTO   08AC (RETURN)
....................  
....................  
.................... /******************************************************************************* 
.................... /* usb_set_address(address) 
.................... /* 
.................... /* Input: address - address the host specified that we use 
.................... /* 
.................... /* Summary: Configures the USB Peripheral for the specified device address.  The host 
.................... /*          will now talk to use with the following address. 
.................... /* 
.................... /********************************************************************************/ 
.................... void usb_set_address(int8 address) {   //done 
....................    UADDR=address; 
*
0AF0:  MOVFF  9A,F6E
....................    if (address) { 
0AF4:  MOVF   x9A,F
0AF6:  BZ    0AFE
....................       usb_state=USB_STATE_ADDRESS; 
0AF8:  MOVLW  04
0AFA:  MOVWF  25
....................    } 
....................    else { 
0AFC:  BRA    0B02
....................       usb_state=USB_STATE_POWERED; 
0AFE:  MOVLW  02
0B00:  MOVWF  25
....................    } 
.................... } 
0B02:  GOTO   0B10 (RETURN)
....................  
....................  
.................... /******************************************************************************* 
.................... /* usb_set_configured(config) 
.................... /* 
.................... /* Input: config - Configuration to use.  0 to uncofigure device. 
.................... /* 
.................... /* Summary: Configures or unconfigures device.  If configuring device it will 
.................... /*          enable all the endpoints the user specified for this configuration. 
.................... /*          If un-configuring device it will disable all endpoints. 
.................... /* 
.................... /*          NOTE: CCS only provides code to handle 1 configuration. 
.................... /* 
.................... /********************************************************************************/ 
.................... void usb_set_configured(int config) { 
....................    int8 en; 
....................    int16 addy; 
....................    int8 new_uep; 
....................    int16 len; 
....................    int8 i; 
....................       if (config==0) { 
*
046C:  MOVF   x99,F
046E:  BNZ   0478
....................          //if config=0 then set addressed state 
....................          usb_state=USB_STATE_ADDRESS; 
0470:  MOVLW  04
0472:  MOVWF  25
....................          usb_disable_endpoints(); 
0474:  RCALL  0228
....................       } 
....................       else { 
0476:  BRA    05FA
....................          usb_state=USB_STATE_CONFIGURED; //else set configed state 
0478:  MOVLW  05
047A:  MOVWF  25
....................          addy=(int16)0x500+(2*USB_MAX_EP0_PACKET_LENGTH); 
047C:  MOVWF  x9C
047E:  MOVLW  80
0480:  MOVWF  x9B
....................          for (en=1;en<16;en++) { 
0482:  MOVLW  01
0484:  MOVWF  x9A
0486:  MOVF   x9A,W
0488:  SUBLW  0F
048A:  BTFSS  FD8.0
048C:  BRA    05FA
....................             new_uep=0; 
048E:  CLRF   x9D
....................             if (usb_ep_rx_type[en]!=USB_ENABLE_DISABLED) { 
0490:  CLRF   03
0492:  MOVF   x9A,W
0494:  MOVFF  FF2,A1
0498:  BCF    FF2.7
049A:  RCALL  009E
049C:  BTFSC  xA1.7
049E:  BSF    FF2.7
04A0:  XORLW  00
04A2:  BZ    0546
....................                new_uep=0x04; 
04A4:  MOVLW  04
04A6:  MOVWF  x9D
....................                len=usb_ep_rx_size[en]; 
04A8:  BCF    FD8.0
04AA:  RLCF   x9A,W
04AC:  CLRF   03
04AE:  MOVFF  FF2,A1
04B2:  BCF    FF2.7
04B4:  RCALL  00BE
04B6:  TBLRD*+
04B8:  MOVFF  FF5,03
04BC:  BTFSC  xA1.7
04BE:  BSF    FF2.7
04C0:  MOVWF  x9E
04C2:  MOVFF  03,9F
....................                EP_BDxCNT_O(en)=len; 
04C6:  MOVF   x9A,W
04C8:  MULLW  08
04CA:  MOVF   FF3,W
04CC:  ADDLW  01
04CE:  MOVWF  01
04D0:  MOVLW  04
04D2:  MOVWF  03
04D4:  BTFSC  FD8.0
04D6:  INCF   03,F
04D8:  MOVFF  01,FE9
04DC:  MOVFF  03,FEA
04E0:  MOVFF  9E,FEF
....................                EP_BDxADR_O(en)=addy; 
04E4:  MOVF   x9A,W
04E6:  MULLW  08
04E8:  MOVF   FF3,W
04EA:  ADDLW  02
04EC:  MOVWF  01
04EE:  MOVLW  04
04F0:  MOVWF  03
04F2:  BTFSC  FD8.0
04F4:  INCF   03,F
04F6:  MOVFF  01,FE9
04FA:  MOVFF  03,FEA
04FE:  MOVFF  9C,FEC
0502:  MOVF   FED,F
0504:  MOVFF  9B,FEF
....................                addy+=usb_ep_rx_size[en]; 
0508:  BCF    FD8.0
050A:  RLCF   x9A,W
050C:  CLRF   03
050E:  MOVFF  FF2,A1
0512:  BCF    FF2.7
0514:  RCALL  00BE
0516:  TBLRD*+
0518:  MOVFF  FF5,03
051C:  BTFSC  xA1.7
051E:  BSF    FF2.7
0520:  ADDWF  x9B,F
0522:  MOVF   03,W
0524:  ADDWFC x9C,F
....................                #if USB_IGNORE_RX_DTS 
....................                   i=0x80; 
....................                #else 
....................                   i=0x88; 
0526:  MOVLW  88
0528:  MOVWF  xA0
....................                #endif 
....................                if (bit_test(len,8)) {bit_set(i,0);} 
052A:  BTFSC  x9F.0
052C:  BSF    xA0.0
....................                if (bit_test(len,9)) {bit_set(i,1);} 
052E:  BTFSC  x9F.1
0530:  BSF    xA0.1
....................                EP_BDxST_O(en)=i; 
0532:  MOVF   x9A,W
0534:  MULLW  08
0536:  MOVFF  FF3,01
053A:  MOVLW  04
053C:  MOVFF  01,FE9
0540:  MOVWF  FEA
0542:  MOVFF  A0,FEF
....................             } 
....................             if (usb_ep_tx_type[en]!=USB_ENABLE_DISABLED) { 
0546:  CLRF   03
0548:  MOVF   x9A,W
054A:  MOVFF  FF2,A1
054E:  BCF    FF2.7
0550:  RCALL  009E
0552:  BTFSC  xA1.7
0554:  BSF    FF2.7
0556:  XORLW  00
0558:  BZ    05BC
....................                new_uep|=0x02; 
055A:  BSF    x9D.1
....................                EP_BDxADR_I(en)=addy; 
055C:  MOVF   x9A,W
055E:  MULLW  08
0560:  MOVF   FF3,W
0562:  ADDLW  06
0564:  MOVWF  01
0566:  MOVLW  04
0568:  MOVWF  03
056A:  BTFSC  FD8.0
056C:  INCF   03,F
056E:  MOVFF  01,FE9
0572:  MOVFF  03,FEA
0576:  MOVFF  9C,FEC
057A:  MOVF   FED,F
057C:  MOVFF  9B,FEF
....................                addy+=usb_ep_tx_size[en]; 
0580:  BCF    FD8.0
0582:  RLCF   x9A,W
0584:  CLRF   03
0586:  MOVFF  FF2,A1
058A:  BCF    FF2.7
058C:  RCALL  00BE
058E:  TBLRD*+
0590:  MOVFF  FF5,03
0594:  BTFSC  xA1.7
0596:  BSF    FF2.7
0598:  ADDWF  x9B,F
059A:  MOVF   03,W
059C:  ADDWFC x9C,F
....................                EP_BDxST_I(en)=0x40; 
059E:  MOVF   x9A,W
05A0:  MULLW  08
05A2:  MOVF   FF3,W
05A4:  ADDLW  04
05A6:  MOVWF  01
05A8:  MOVLW  04
05AA:  MOVWF  03
05AC:  BTFSC  FD8.0
05AE:  INCF   03,F
05B0:  MOVFF  01,FE9
05B4:  MOVFF  03,FEA
05B8:  MOVLW  40
05BA:  MOVWF  FEF
....................             } 
....................             if (new_uep==0x06) {new_uep=0x0E;} 
05BC:  MOVF   x9D,W
05BE:  SUBLW  06
05C0:  BNZ   05C6
05C2:  MOVLW  0E
05C4:  MOVWF  x9D
....................             if (usb_ep_tx_type[en]!=USB_ENABLE_ISOCHRONOUS) { 
05C6:  CLRF   03
05C8:  MOVF   x9A,W
05CA:  MOVFF  FF2,A1
05CE:  BCF    FF2.7
05D0:  RCALL  009E
05D2:  BTFSC  xA1.7
05D4:  BSF    FF2.7
05D6:  SUBLW  02
05D8:  BZ    05DC
....................                new_uep|=0x10; 
05DA:  BSF    x9D.4
....................             } 
....................             UEP(en)=new_uep; 
05DC:  MOVLW  70
05DE:  ADDWF  x9A,W
05E0:  MOVWF  01
05E2:  MOVLW  0F
05E4:  MOVWF  03
05E6:  BTFSC  FD8.0
05E8:  INCF   03,F
05EA:  MOVFF  01,FE9
05EE:  MOVFF  03,FEA
05F2:  MOVFF  9D,FEF
....................          } 
05F6:  INCF   x9A,F
05F8:  BRA    0486
....................       } 
.................... } 
05FA:  GOTO   0692 (RETURN)
....................  
.................... /// END Hardware layer functions required by USB.C 
....................  
....................  
.................... /// BEGIN USB Interrupt Service Routine 
....................  
.................... /******************************************************************************* 
.................... /* usb_handle_interrupt() 
.................... /* 
.................... /* Summary: Checks the interrupt, and acts upon event.  Processing finished 
.................... /*          tokens is the majority of this code, and is handled by usb.c 
.................... /* 
.................... /* NOTE: If you wish to change to a polling method (and not an interrupt method), 
.................... /*       then you must call this function rapidly.  If there is more than 10ms 
.................... /*       latency the PC may think the USB device is stalled and disable it. 
.................... /*       To switch to a polling method, remove the #int_usb line above this fuction. 
.................... /*       Also, goto usb_init() and remove the code that enables the USB interrupt. 
.................... /********************************************************************************/ 
.................... #int_usb 
.................... void usb_isr() { 
....................    if (usb_state==USB_STATE_DETACHED) return;   //should never happen, though 
*
0BF6:  MOVF   25,F
0BF8:  BNZ   0BFC
0BFA:  BRA    0C5A
....................    if (UIR) { 
0BFC:  MOVF   F68,F
0BFE:  BZ    0C5A
....................       debug_usb(debug_putc,"\r\n\n[%X] ",UIR); 
....................       if (UIR_ACTV && UIE_ACTV) {usb_isr_activity();}  //activity detected.  (only enable after sleep) 
0C00:  BTFSS  F68.2
0C02:  BRA    0C0C
0C04:  BTFSS  F69.2
0C06:  BRA    0C0C
0C08:  GOTO   01F2
....................  
....................       if (UCON_SUSPND) return; 
0C0C:  BTFSS  F6D.1
0C0E:  BRA    0C12
0C10:  BRA    0C5A
....................  
....................       if (UIR_UERR && UIE_UERR) {usb_isr_uerr();}          //error has been detected 
0C12:  BTFSS  F68.1
0C14:  BRA    0C1E
0C16:  BTFSS  F69.1
0C18:  BRA    0C1E
0C1A:  GOTO   01FC
....................  
....................       if (UIR_URST && UIE_URST) {usb_isr_rst();}        //usb reset has been detected 
0C1E:  BTFSS  F68.0
0C20:  BRA    0C2A
0C22:  BTFSS  F69.0
0C24:  BRA    0C2A
0C26:  GOTO   0272
....................  
....................       if (UIR_IDLE && UIE_IDLE) {usb_isr_uidle();}        //idle time, we can go to sleep 
0C2A:  BTFSS  F68.4
0C2C:  BRA    0C36
0C2E:  BTFSS  F69.4
0C30:  BRA    0C36
0C32:  GOTO   029C
....................       if (UIR_SOF && UIE_SOF) {usb_isr_sof();} 
0C36:  BTFSS  F68.6
0C38:  BRA    0C42
0C3A:  BTFSS  F69.6
0C3C:  BRA    0C42
0C3E:  GOTO   02A6
....................       if (UIR_STALL && UIE_STALL) {usb_isr_stall();}        //a stall handshake was sent 
0C42:  BTFSS  F68.5
0C44:  BRA    0C4E
0C46:  BTFSS  F69.5
0C48:  BRA    0C4E
0C4A:  GOTO   02AC
....................  
....................       if (UIR_TRN && UIE_TRN) { 
0C4E:  BTFSS  F68.3
0C50:  BRA    0C5A
0C52:  BTFSS  F69.3
0C54:  BRA    0C5A
....................          usb_isr_tok_dne(); 
0C56:  BRA    0B2C
....................          UIR_TRN=0;    // clear the token done interrupt., 0x190.3 
0C58:  BCF    F68.3
....................       }    //a token has been detected (majority of isrs) 
....................    } 
.................... } 
....................  
.................... //SOF interrupt not handled.  user must add this depending on application 
0C5A:  BCF    FA1.5
0C5C:  GOTO   0058
.................... void usb_isr_sof(void) { 
....................    debug_usb(debug_putc,"\r\nSOF"); 
....................    UIR_SOF=0; 
*
02A6:  BCF    F68.6
.................... } 
02A8:  GOTO   0C42 (RETURN)
....................  
.................... /******************************************************************************* 
.................... /* usb_disable_endpoints() 
.................... /* 
.................... /* Summary: Disables endpoints 1 thru 15 
.................... /* 
.................... /********************************************************************************/ 
.................... void usb_disable_endpoints(void) { 
....................    int8 i; 
....................    for (i=1;i<16;i++) { 
*
0228:  MOVLW  01
022A:  MOVWF  xA1
022C:  MOVF   xA1,W
022E:  SUBLW  0F
0230:  BNC   024E
....................       UEP(i)=ENDPT_DISABLED; 
0232:  MOVLW  70
0234:  ADDWF  xA1,W
0236:  MOVWF  01
0238:  MOVLW  0F
023A:  MOVWF  03
023C:  BTFSC  FD8.0
023E:  INCF   03,F
0240:  MOVFF  01,FE9
0244:  MOVFF  03,FEA
0248:  CLRF   FEF
....................    } 
024A:  INCF   xA1,F
024C:  BRA    022C
....................    __usb_kbhit_status=0; 
024E:  CLRF   24
0250:  CLRF   23
.................... } 
0252:  RETLW  00
....................  
.................... /******************************************************************************* 
.................... /* usb_isr_rst() 
.................... /* 
.................... /* Summary: The host (computer) sent us a RESET command.  Reset USB device 
.................... /*          and token handler code to initial state. 
.................... /* 
.................... /********************************************************************************/ 
.................... void usb_isr_rst() { 
....................    debug_usb(debug_putc,"R"); 
....................  
....................    UEIR=0; 
*
0272:  CLRF   F6A
....................    UIR=0; 
0274:  CLRF   F68
....................    UEIE=0x9F; 
0276:  MOVLW  9F
0278:  MOVWF  F6B
....................    UIE=STANDARD_INTS & ~__USB_UIF_ACTIVE; 
027A:  MOVLW  39
027C:  MOVWF  F69
....................  
....................    UADDR=0; 
027E:  CLRF   F6E
....................  
....................    usb_token_reset(); 
0280:  RCALL  0204
....................  
....................    usb_disable_endpoints(); 
0282:  RCALL  0228
....................  
....................    UEP(0)=ENDPT_CONTROL | 0x10; 
0284:  MOVLW  16
0286:  MOVWF  F70
....................  
....................    while (UIR_TRN) { 
0288:  BTFSS  F68.3
028A:  BRA    0290
....................       UIR_TRN=0;    //do this to clear out the ustat fifo 
028C:  BCF    F68.3
....................    } 
028E:  BRA    0288
....................  
....................    UCON_PKTDIS=0; //SIE token and packet processing enabled 
0290:  BCF    F6D.4
....................  
....................    usb_init_ep0_setup(); 
0292:  RCALL  0254
....................  
....................    usb_state=USB_STATE_DEFAULT; //put usb mcu into default state 
0294:  MOVLW  03
0296:  MOVWF  25
.................... } 
0298:  GOTO   0C2A (RETURN)
....................  
.................... /***************************************************************************** 
.................... /* usb_init_ep0_setup() 
.................... /* 
.................... /* Summary: Configure EP0 to receive setup packets 
.................... /* 
.................... /*****************************************************************************/ 
.................... void usb_init_ep0_setup(void) { 
....................     EP_BDxCNT_O(0) = USB_MAX_EP0_PACKET_LENGTH; 
*
0254:  MOVLW  40
0256:  MOVLB  4
0258:  MOVWF  x01
....................     EP_BDxADR_O(0) = 0x500; 
025A:  MOVLW  05
025C:  MOVWF  x03
025E:  CLRF   x02
....................    #if USB_IGNORE_RX_DTS 
....................     EP_BDxST_O(0) = 0x80; //give control to SIE, data toggle synch off 
....................    #else 
....................     EP_BDxST_O(0) = 0x88; //give control to SIE, DATA0, data toggle synch on 
0260:  MOVLW  88
0262:  MOVWF  x00
....................    #endif 
....................  
....................     EP_BDxST_I(0) = 0; 
0264:  CLRF   x04
....................     EP_BDxADR_I(0) = 0x500 + (int16)USB_MAX_EP0_PACKET_LENGTH; 
0266:  MOVLW  05
0268:  MOVWF  x07
026A:  MOVLW  40
026C:  MOVWF  x06
.................... } 
026E:  MOVLB  0
0270:  RETLW  00
....................  
.................... /******************************************************************************* 
.................... /* usb_isr_uerr() 
.................... /* 
.................... /* Summary: The USB peripheral had an error.  If user specified, error counter 
.................... /*          will incerement.  If having problems check the status of these 8 bytes. 
.................... /* 
.................... /* NOTE: This code is not enabled by default. 
.................... /********************************************************************************/ 
.................... void usb_isr_uerr() { 
.................... #if USB_USE_ERROR_COUNTER 
....................    int ints; 
.................... #endif 
....................  
....................    debug_usb(debug_putc,"E %X ",UEIR); 
....................  
.................... #if USB_USE_ERROR_COUNTER 
....................  
....................    ints=UEIR & UEIE; //mask off the flags with the ones that are enabled 
....................  
....................    if ( bit_test(ints,0) ) { //increment pid_error counter 
....................       debug_usb(debug_putc,"PID "); 
....................       ERROR_COUNTER[0]++; 
....................    } 
....................  
....................    if ( bit_test(ints,1) ) {  //increment crc5 error counter 
....................       debug_usbdebug_putc,"CRC5 "); 
....................       ERROR_COUNTER[1]++; 
....................    } 
....................  
....................    if ( bit_test(ints,2) ) {  //increment crc16 error counter 
....................       debug_usb(debug_putc,"CRC16 "); 
....................       ERROR_COUNTER[2]++; 
....................    } 
....................  
....................    if ( bit_test(ints,3) ) {  //increment dfn8 error counter 
....................       debug_usb(debug_putc,"DFN8 "); 
....................       ERROR_COUNTER[3]++; 
....................    } 
....................  
....................    if ( bit_test(ints,4) ) {  //increment bto error counter 
....................       debug_usb(debug_putc,"BTO "); 
....................       ERROR_COUNTER[4]++; 
....................    } 
....................  
....................    if ( bit_test(ints,7) ) { //increment bts error counter 
....................       debug_usb(debug_putc,"BTS "); 
....................       ERROR_COUNTER[5]++; 
....................    } 
.................... #endif 
....................  
....................    UEIR=0; 
*
01FC:  CLRF   F6A
....................    UIR_UERR=0; 
01FE:  BCF    F68.1
.................... } 
0200:  GOTO   0C1E (RETURN)
....................  
.................... /******************************************************************************* 
.................... /* usb_isr_uidle() 
.................... /* 
.................... /* Summary: USB peripheral detected IDLE.  Put the USB peripheral to sleep. 
.................... /* 
.................... /********************************************************************************/ 
.................... void usb_isr_uidle() { 
....................    debug_usb(debug_putc,"I"); 
....................  
....................    UIE_ACTV=1;   //enable activity interrupt flag. (we are now suspended until we get an activity interrupt. nice) 
*
029C:  BSF    F69.2
....................    UIR_IDLE=0; //clear idle interrupt flag 
029E:  BCF    F68.4
....................    UCON_SUSPND=1; //set suspend. we are now suspended 
02A0:  BSF    F6D.1
.................... } 
02A2:  GOTO   0C36 (RETURN)
....................  
....................  
.................... /******************************************************************************* 
.................... /* usb_isr_activity() 
.................... /* 
.................... /* Summary: USB peripheral detected activity on the USB device.  Wake-up the USB 
.................... /*          peripheral. 
.................... /* 
.................... /********************************************************************************/ 
.................... void usb_isr_activity() { 
....................    debug_usb(debug_putc,"A"); 
....................  
....................    UCON_SUSPND=0; //turn off low power suspending 
*
01F2:  BCF    F6D.1
....................    UIE_ACTV=0; //clear activity interupt enabling 
01F4:  BCF    F69.2
....................    UIR_ACTV=0; 
01F6:  BCF    F68.2
.................... } 
01F8:  GOTO   0C0C (RETURN)
....................  
.................... /******************************************************************************* 
.................... /* usb_isr_stall() 
.................... /* 
.................... /* Summary: Stall handshake detected. 
.................... /* 
.................... /********************************************************************************/ 
.................... void usb_isr_stall(void) { 
....................    debug_usb(debug_putc,"S"); 
....................  
....................    if (bit_test(UEP(0),0)) { 
*
02AC:  BTFSS  F70.0
02AE:  BRA    02B4
....................       usb_init_ep0_setup(); 
02B0:  RCALL  0254
....................       bit_clear(UEP(0),0); 
02B2:  BCF    F70.0
....................    } 
....................    UIR_STALL=0; 
02B4:  BCF    F68.5
.................... } 
02B6:  GOTO   0C4E (RETURN)
....................  
....................  
.................... /******************************************************************************* 
.................... /* usb_isr_tok_dne() 
.................... /* 
.................... /* Summary: A Token (IN/OUT/SETUP) has been received by the USB peripheral. 
.................... /*          If a setup token on EP0 was received, run the chapter 9 code and 
.................... /*          handle the request. 
.................... /*          If an IN token on EP0 was received, continue transmitting any 
.................... /*          unfinished requests that may take more than one packet to transmit 
.................... /*          (if necessary). 
.................... /*          If an OUT token on any other EP was received, mark that EP as ready 
.................... /*          for a usb_get_packet(). 
.................... /*          Does not handle any IN or OUT tokens on EP0. 
.................... /* 
.................... /********************************************************************************/ 
.................... void usb_isr_tok_dne() { 
....................    int8 en; 
....................  
....................    en=USTAT>>3; 
*
0B2C:  RRCF   F6C,W
0B2E:  MOVWF  x98
0B30:  RRCF   x98,F
0B32:  RRCF   x98,F
0B34:  MOVLW  1F
0B36:  ANDWF  x98,F
....................  
....................          debug_usb(debug_putc,"T "); 
....................          debug_usb(debug_putc,"%X ", USTAT); 
....................  
....................       if (USTAT==USTAT_OUT_SETUP_E0) {   //new out or setup token in the buffer 
0B38:  MOVF   F6C,F
0B3A:  BNZ   0BB2
....................          debug_usb(debug_putc,"%X ", EP_BDxST_O(0)); 
....................          if ((EP_BDxST_O(0) & 0x3C)==USB_PIC_PID_SETUP) { 
0B3C:  MOVLB  4
0B3E:  MOVF   x00,W
0B40:  ANDLW  3C
0B42:  SUBLW  34
0B44:  BNZ   0B7C
....................             EP_BDxST_I(0)=0;   // return the in buffer to us (dequeue any pending requests) 
0B46:  CLRF   x04
....................  
....................             debug_usb(debug_putc,"(%U) ", EP_BDxCNT_O(0)); 
....................             debug_display_ram(EP_BDxCNT_O(0), usb_ep0_rx_buffer); 
....................  
....................             usb_isr_tok_setup_dne(); 
0B48:  MOVLB  0
0B4A:  BRA    08D8
....................  
....................             //if setup_0_tx_size==0xFF - stall ep0 (unhandled request) 
....................             //if setup_0_tx_size==0xFE - get EP0OUT ready for a data packet, leave EP0IN alone 
....................             //else setup_0_tx_size=size of response, get EP0OUT ready for a setup packet, mark EPOIN ready for transmit 
....................             if (__setup_0_tx_size==0xFF) 
0B4C:  INCFSZ 26,W
0B4E:  BRA    0B5A
....................                usb_flush_out(0,USB_DTS_STALL); 
0B50:  CLRF   x99
0B52:  MOVLW  03
0B54:  MOVWF  x9A
0B56:  RCALL  0902
....................             else { 
0B58:  BRA    0B76
....................                usb_flush_out(0,USB_DTS_TOGGLE); 
0B5A:  CLRF   x99
0B5C:  MOVLW  02
0B5E:  MOVWF  x9A
0B60:  RCALL  0902
....................                if (__setup_0_tx_size!=0xFE) { 
0B62:  MOVF   26,W
0B64:  SUBLW  FE
0B66:  BZ    0B76
....................                   usb_flush_in(0,__setup_0_tx_size,USB_DTS_USERX); 
0B68:  CLRF   x99
0B6A:  CLRF   x9B
0B6C:  MOVFF  26,9A
0B70:  MOVLW  04
0B72:  MOVWF  x9C
0B74:  RCALL  09E8
....................                } 
....................             } 
....................             UCON_PKTDIS=0;       // UCON,PKT_DIS ; Assuming there is nothing to dequeue, clear the packet disable bit 
0B76:  BCF    F6D.4
....................          } 
....................          else if ((EP_BDxST_O(0) & 0x3C)==USB_PIC_PID_OUT) { 
0B78:  BRA    0BAC
0B7A:  MOVLB  4
0B7C:  MOVF   x00,W
0B7E:  ANDLW  3C
0B80:  SUBLW  04
0B82:  BNZ   0BAE
....................             usb_isr_tok_out_dne(0); 
0B84:  MOVLB  0
0B86:  CLRF   x99
0B88:  RCALL  0AC6
....................             usb_flush_out(0,USB_DTS_TOGGLE); 
0B8A:  CLRF   x99
0B8C:  MOVLW  02
0B8E:  MOVWF  x9A
0B90:  RCALL  0902
....................             if ((__setup_0_tx_size!=0xFE)&&(__setup_0_tx_size!=0xFF)) { 
0B92:  MOVF   26,W
0B94:  SUBLW  FE
0B96:  BZ    0BAC
0B98:  INCFSZ 26,W
0B9A:  BRA    0B9E
0B9C:  BRA    0BAC
....................                usb_flush_in(0,__setup_0_tx_size,USB_DTS_DATA1);   //send response (usually a 0len) 
0B9E:  CLRF   x99
0BA0:  CLRF   x9B
0BA2:  MOVFF  26,9A
0BA6:  MOVLW  01
0BA8:  MOVWF  x9C
0BAA:  RCALL  09E8
0BAC:  MOVLB  4
....................             } 
....................          } 
....................       } 
....................  
....................       else if (USTAT==USTAT_IN_E0) {   //pic -> host transfer completed 
0BAE:  BRA    0BF0
0BB0:  MOVLB  0
0BB2:  MOVF   F6C,W
0BB4:  SUBLW  04
0BB6:  BNZ   0BDC
....................          __setup_0_tx_size=0xFF; 
0BB8:  MOVLW  FF
0BBA:  MOVWF  26
....................          usb_isr_tok_in_dne(0); 
0BBC:  CLRF   x99
0BBE:  RCALL  0B14
....................          if (__setup_0_tx_size!=0xFF) 
0BC0:  INCFSZ 26,W
0BC2:  BRA    0BC6
0BC4:  BRA    0BD6
....................             usb_flush_in(0,__setup_0_tx_size,USB_DTS_TOGGLE); 
0BC6:  CLRF   x99
0BC8:  CLRF   x9B
0BCA:  MOVFF  26,9A
0BCE:  MOVLW  02
0BD0:  MOVWF  x9C
0BD2:  RCALL  09E8
....................          else 
0BD4:  BRA    0BDA
....................             usb_init_ep0_setup(); 
0BD6:  CALL   0254
....................       } 
....................  
....................       else { 
0BDA:  BRA    0BEE
....................          if (!bit_test(USTAT,2)) { 
0BDC:  BTFSC  F6C.2
0BDE:  BRA    0BE8
....................             usb_isr_tok_out_dne(en); 
0BE0:  MOVFF  98,99
0BE4:  RCALL  0AC6
....................          } 
....................          else { 
0BE6:  BRA    0BEE
....................             usb_isr_tok_in_dne(en); 
0BE8:  MOVFF  98,99
0BEC:  RCALL  0B14
0BEE:  MOVLB  4
....................          } 
....................       } 
.................... } 
0BF0:  MOVLB  0
0BF2:  GOTO   0C58 (RETURN)
....................  
.................... /************************************************************** 
.................... /* usb_request_send_response(len) 
.................... /* usb_request_get_data() 
.................... /* usb_request_stall() 
.................... /* 
.................... /* Input: len - size of packet to send 
.................... /* 
.................... /* Summary: After we process a SETUP request, we have 1 of three responses: 
.................... /*            1.) send a response IN packet 
.................... /*            2.) wait for followup OUT packet(s) with data 
.................... /*            3.) stall because we don't support that SETUP request 
.................... /* 
.................... /*          If we are sending data, the array usb_ep0_tx_buffer[] will hold 
.................... /*          the response and the USB Request handler code will call 
.................... /*          usb_request_send_response() to let us know how big the packet is. 
.................... /* 
.................... /*          If we are waiting for more data, usb_request_get_data() will 
.................... /*          be called by the USB request handler code to configure the EP0 OUT 
.................... /*          endpoint to be ready for more data 
.................... /* 
.................... /*          If we don't support a request, usb_request_stall() will be called 
.................... /*          by the USB request handler code to stall the endpoint 0. 
.................... /* 
.................... /***************************************************************/ 
.................... void usb_request_send_response(int len) { 
....................    __setup_0_tx_size=len; 
*
02BA:  MOVFF  9C,26
.................... } 
02BE:  RETLW  00
....................  
.................... void usb_request_get_data(void) { 
....................    __setup_0_tx_size=0xFE; 
.................... } 
....................  
.................... void usb_request_stall(void) { 
....................    __setup_0_tx_size=0xFF; 
02C0:  MOVLW  FF
02C2:  MOVWF  26
.................... } 
02C4:  RETLW  00
....................  
.................... /// END USB Interrupt Service Routine 
....................  
.................... #ENDIF 
....................  
.................... #include "IncuScope_HIDdesc64.h"  // HID descriptor file 
.................... /////////////////////////////////////////////////////////////////////////// 
.................... ///                      IncuScope_HIDdesc_64.h                            //// 
.................... ////                                                                   //// 
.................... //// Device / configuration descriptors for USB 4 channel controller   //// 
.................... //// based on CCS's HID Demo example (see ex_usb_hid.c)                //// 
.................... ////                                                                   //// 
.................... /////////////////////////////////////////////////////////////////////////// 
.................... ////                                                                   //// 
.................... //// Version History:                                                  //// 
.................... ////                                                                   //// 
.................... //// 01/01/07 version 1                                                //// 
.................... //// PIC18Fxx5x initial release                                        //// 
.................... //// 08/14/07 modified to transfer 6 bytes                             //// 
.................... //// 06/24/08 modified to transfer 50 bytes 
.................... //// 06/25/08 modified to transfer 54 bytes 
.................... ///  07/27/09 modified to transfer 32 bytes, desc to "MPP SCANCARD" 
....................  
.................... #IFNDEF __USB_DESCRIPTORS__ 
.................... #DEFINE __USB_DESCRIPTORS__ 
....................  
.................... #include <usb.h> 
.................... /////////////////////////////////////////////////////////////////////////// 
.................... ////                              usb.h                                //// 
.................... ////                                                                   //// 
.................... //// Function protypes, defintions and globals used by CCS USB driver  //// 
.................... ////                                                                   //// 
.................... //// This file is part of CCS's PIC USB driver code, which includes:   //// 
.................... ////   usb_desc_*.h - an example set of config and device descriptor   //// 
.................... ////   usb.c - USB token and request handler code                      //// 
.................... ////   usb.h - definitions, prototypes and global variables            //// 
.................... ////                                                                   //// 
.................... //// The following examples are provided by CCS:                       //// 
.................... ////   ex_usb_mouse.c - A HID Mouse.                                   //// 
.................... ////   ex_usb_hid.c - A custom application using HID protocol.         //// 
.................... ////   ex_usb_kbmouse.c - A HID Mouse/Keyboard combo using multiple    //// 
.................... ////                      interfaces.                                  //// 
.................... ////   ex_usb_kbmouse.c - A HID Mouse/Keyboard combo using multiple    //// 
.................... ////                      HID Reports.                                 //// 
.................... ////   ex_usb_scope.c - A digital oscilloscope using a custom          //// 
.................... ////                    protocol requiring custom Windows drivers.     //// 
.................... ////                                                                   //// 
.................... ////                   **** DEFINITIONS *****                          //// 
.................... //// The following definitions are declared here, but can be           //// 
.................... //// overwritten in your code.  Unless needed otherwise, leave         //// 
.................... //// to default value.  If confused about a definition read the        //// 
.................... //// comments at each defintion                                        //// 
.................... ////                                                                   //// 
.................... //// USB_HID_IDLE (FALSE) - Set to TRUE if your device supports        //// 
.................... ////                            Set_Idle HID class request.  Set to    //// 
.................... ////                            False if you do not (device will       //// 
.................... ////                            send a Wrong-state if computer         //// 
.................... ////                            sends a Set_Idle / Get_Idle command)   //// 
.................... ////                            NOTE: If you set to TRUE you must      //// 
.................... ////                            provide your own code.  See            //// 
.................... ////                            usb_isr_tkn_setup_ClassInterface() in  //// 
.................... ////                            usb.c                                  //// 
.................... ////                                                                   //// 
.................... //// USB_HID_BOOT_PROTOCOL (FALSE) - Set to TRUE if your device supports   //// 
.................... ////                            Set_Protocl HID class request. Set to  //// 
.................... ////                            False if you do not (device will       //// 
.................... ////                            send a Wrong-state if computer         //// 
.................... ////                            sends a Set_Protocl / Get_Protocol     //// 
.................... ////                            command).                              //// 
.................... ////                            NOTE: If you set to TRUE you must      //// 
.................... ////                            provide your own code in the           //// 
.................... ////                            application that properly send boot    //// 
.................... ////                            or HID packets.                        //// 
.................... ////                                                                   //// 
.................... //// USB_MAX_EP0_PACKET_LENGTH (8) - Max Packet size for Endpoint 0.   //// 
.................... ////                            Only the 18Fxx5x USB peripheral can    //// 
.................... ////                            have a value larger than 8.            //// 
.................... ////                                                                   //// 
.................... //// USB_EPx_RX_ENABLE (USB_ENABLE_DISABLED) - Where x is the          //// 
.................... ////                         endpoint number. Change this define       //// 
.................... ////                         to specify what kind of transfer method   //// 
.................... ////                         this RX (PC to device) endpoint uses.     //// 
.................... ////                       Here is the list of valid transfer methods: //// 
.................... ////                             USB_ENABLE_CONTROL                    //// 
.................... ////                             USB_ENABLE_ISOCHRONOUS                //// 
.................... ////                             USB_ENABLE_BULK                       //// 
.................... ////                             USB_ENABLE_INTERRUPT                  //// 
.................... ////                             USB_ENABLE_DISABLED                   //// 
.................... ////                        Don't forget that you must specify the     //// 
.................... ////                        transfer method properly in your endpoint  //// 
.................... ////                        descriptor, too.                           //// 
.................... ////                                                                   //// 
.................... //// USB_EPx_RX_SIZE (0) - For some hardware it is important to know   //// 
.................... ////                       how much memory to reserve for receiving    //// 
.................... ////                       packets.                                    //// 
.................... ////                                                                   //// 
.................... ////  *** NOTE *** You must have both USB_EPx_RX_ENABLE defined and    //// 
.................... ////               USB_EPx_RX_SIZE defined (non 0) to enable a RX      //// 
.................... ////               endpoint.                                           //// 
.................... ////  *** NOTE *** Endpoint 0 is always enabled.                       //// 
.................... ////                                                                   //// 
.................... //// USB_EPx_TX_ENABLE (USB_ENABLE_DISABLED) - Where x is the          //// 
.................... ////                         endpoint number. Change this define       //// 
.................... ////                         to specify what kind of transfer method   //// 
.................... ////                         this TX (device to PC) endpoint uses.     //// 
.................... ////                       Here is the list of valid transfer methods: //// 
.................... ////                             USB_ENABLE_CONTROL                    //// 
.................... ////                             USB_ENABLE_ISOCHRONOUS                //// 
.................... ////                             USB_ENABLE_BULK                       //// 
.................... ////                             USB_ENABLE_INTERRUPT                  //// 
.................... ////                             USB_ENABLE_DISABLED                   //// 
.................... ////                        Don't forget that you must specify the     //// 
.................... ////                        transfer method properly in your endpoint  //// 
.................... ////                        descriptor, too.                           //// 
.................... ////                                                                   //// 
.................... //// USB_EPx_TX_SIZE (0) - For some hardware it is important to know   //// 
.................... ////                       how much memory to reserve for transmitting //// 
.................... ////                       packets.                                    //// 
.................... ////                                                                   //// 
.................... ////  *** NOTE *** You must have both USB_EPx_TX_ENABLE defined and    //// 
.................... ////               USB_EPx_TX_SIZE defined (non 0) to enable a TX      //// 
.................... ////               endpoint.                                           //// 
.................... ////                                                                   //// 
.................... ////                                                                   //// 
.................... //// USB_HID_DEVICE (TRUE) - HID devices require extra code to handle  //// 
.................... ////                         HID requests.  You can disable to save    //// 
.................... ////                         ROM space if you are not using a HID      //// 
.................... ////                         device.  If you are not using a HID       //// 
.................... ////                         device you must provide your own O/S      //// 
.................... ////                         (Windows) driver.                         //// 
.................... ////                                                                   //// 
.................... //// The other definitions should not be changed.                      //// 
.................... ////                                                                   //// 
.................... /////////////////////////////////////////////////////////////////////////// 
.................... ////                                                                   //// 
.................... //// Version History:                                                  //// 
.................... ////                                                                   //// 
.................... //// July 13th, 2005:                                                  //// 
.................... ////  usb_ep_tx_size[] and usb_ep_rx_size[] changed to 16bits          //// 
.................... ////                                                                   //// 
.................... //// June 20th, 2005:                                                  //// 
.................... ////  Initial 18fxx5x release                                          //// 
.................... ////                                                                   //// 
.................... //// May 13th, 2005:                                                   //// 
.................... ////  Beta release, only works with 18Fxx5x hardware layer.            //// 
.................... ////  Now supports multiple interfaces (many defines in descriptors    //// 
.................... ////   will have to be changed, see examples)                          //// 
.................... ////                                                                   //// 
.................... //// Mar 21st, 2005:                                                   //// 
.................... ////  Initial Alpha Release with PIC18Fxx5x support.  (ONLY TESTED     //// 
.................... ////   WITH 18F4550)                                                   //// 
.................... ////  usb_gets() and usb_puts() changed (see usb.c)                    //// 
.................... ////                                                                   //// 
.................... //// June 24th, 2004:                                                  //// 
.................... ////  Optimization and cleanup.                                        //// 
.................... ////                The following definitions changed:                 //// 
.................... ////  USB_EPx_TX_ENABLE and USB_EPx_RX_ENABLE have changed. See usb.h  //// 
.................... ////  USB_CONFIG_DESCRIPTORS[] removed                                 //// 
.................... ////  USB_CONFIG_DESC_LEN changed to USB_DESC_CONFIG_LEN               //// 
.................... ////  USB_INTERFACE_DESC_LEN changed to USB_DESC_INTERFACE_LEN         //// 
.................... ////  USB_CLASS_DESC_LEN changed to USB_DESC_CLASS_LEN                 //// 
.................... ////  USB_ENDPOINT_DESC_LEN changed to USB_DESC_ENDPOINT_LEN           //// 
.................... ////  USB_CONFIG_DESC_KEY changed to USB_DESC_CONFIG_TYPE              //// 
.................... ////  USB_INTERFACE_DESC_KEY changed to USB_DESC_INTERFACE_TYPE        //// 
.................... ////  USB_CLASS_DESC_KEY changed to USB_DESC_CLASS_TYPE                //// 
.................... ////  USB_ENDPOINT_DESC_KEY changed to USB_DESC_ENDPOINT_TYPE          //// 
.................... ////  USB_STRING_X[] arrays removed, see USB_STRING_DESC[] and         //// 
.................... ////                                 USB_STRING_DESC_OFFSET[]          //// 
.................... ////  dev_req, curr_config, status_device and getdesc_type global      //// 
.................... ////        variables moved into struct USB_stack_status               //// 
.................... ////                                                                   //// 
.................... //// October 15th, 2003: Support for boot protocol added.              //// 
.................... ////         Set USB_HID_BOOT_PROTOCOL to TRUE to support this.        //// 
.................... ////         The array hid_protocol[] saves which protocol mode each   //// 
.................... ////         interface is in.  It is your applications job to send     //// 
.................... ////         data that either fit the boot protocol or HID protocol.   //// 
.................... ////                                                                   //// 
.................... //// May 6th, 2003: Fixed a potential stack overflow using PCM         //// 
.................... ////                                                                   //// 
.................... //// October 29th, 2002: New definition added to USB_STATES            //// 
.................... ////                                                                   //// 
.................... //// August 2nd, 2002: Initial Public Release                          //// 
.................... ////                                                                   //// 
.................... /////////////////////////////////////////////////////////////////////////// 
.................... ////        (C) Copyright 1996,2005 Custom Computer Services           //// 
.................... //// This source code may only be used by licensed users of the CCS    //// 
.................... //// C compiler.  This source code may only be distributed to other    //// 
.................... //// licensed users of the CCS C compiler.  No other use,              //// 
.................... //// reproduction or distribution is permitted without written         //// 
.................... //// permission.  Derivative programs created using this software      //// 
.................... //// in object code form are not restricted in any way.                //// 
.................... /////////////////////////////////////////////////////////////////////////// 
....................  
....................  
.................... #IFNDEF __USB_PROTOTYPES__ 
.................... #DEFINE __USB_PROTOTYPES__ 
....................  
.................... #IFNDEF USB_HID_BOOT_PROTOCOL 
....................    #DEFINE USB_HID_BOOT_PROTOCOL FALSE 
.................... #ENDIF 
....................  
.................... #IFNDEF USB_HID_IDLE 
....................    #DEFINE USB_HID_IDLE FALSE 
.................... #ENDIF 
....................  
.................... //should the compiler add the extra HID handler code?  Defaults to yes. 
.................... #IFNDEF USB_HID_DEVICE 
....................    #DEFINE USB_HID_DEVICE TRUE 
.................... #ENDIF 
....................  
.................... #IFNDEF USB_CDC_DEVICE 
....................    #DEFINE USB_CDC_DEVICE FALSE 
.................... #ENDIF 
....................  
.................... #ifndef USB_OPT_FOR_ROM 
....................    #define USB_OPT_FOR_ROM TRUE  //set to false to opt for less RAM, true to opt for less ROM 
.................... #endif 
....................  
.................... #IFNDEF USB_MAX_EP0_PACKET_LENGTH 
....................   #DEFINE USB_MAX_EP0_PACKET_LENGTH 8 
.................... #ENDIF 
....................  
.................... //CCS only supports one configuration at this time 
.................... #DEFINE USB_NUM_CONFIGURATIONS 1 //DO NOT CHANGE 
....................  
.................... //PID values for tokens (see page 48 of USB Complete ed.1) 
.................... #define PID_IN       0x09  //device to host transactions 
.................... #define PID_OUT      0x01  //host to device transactions 
.................... #define PID_SETUP    0x0D  //host to device setup transaction 
.................... #define PID_ACK      0x02  //receiver accepts error-free data packet 
.................... #define PID_DATA0    0x03  //data packet with even sync bit 
.................... #define PID_SOF      0x05  //start of framer marker and frame number 
.................... #define PID_NAK      0x0A  //receiver can't accept data or sender cant send data or has no data to transmit 
.................... #define PID_DATA1    0x0B  //data packet with odd sync bit 
.................... #define PID_PRE      0x0C  //preamble issued by host.  enables downstream traffic to low-speed device 
.................... #define PID_STALL    0x0E  //a control request isnt supported or the endpoint is halted 
....................  
.................... //Key which identifies descritpors 
.................... #DEFINE USB_DESC_DEVICE_TYPE     0x01  //#DEFINE USB_DEVICE_DESC_KEY      0x01 
.................... #DEFINE USB_DESC_CONFIG_TYPE     0x02  //#DEFINE USB_CONFIG_DESC_KEY      0x02 
.................... #DEFINE USB_DESC_STRING_TYPE     0x03  //#DEFINE USB_STRING_DESC_KEY      0x03 
.................... #DEFINE USB_DESC_INTERFACE_TYPE  0x04  //#DEFINE USB_INTERFACE_DESC_KEY   0x04 
.................... #DEFINE USB_DESC_ENDPOINT_TYPE   0x05  //#DEFINE USB_ENDPOINT_DESC_KEY    0x05 
.................... #DEFINE USB_DESC_CLASS_TYPE      0x21  //#DEFINE USB_CLASS_DESC_KEY       0x21 
.................... #DEFINE USB_DESC_HIDREPORT_TYPE  0x22 
....................  
.................... //The length of each descriptor 
.................... #DEFINE USB_DESC_DEVICE_LEN      18 //#DEFINE USB_DEVICE_DESC_LEN      18 
.................... #DEFINE USB_DESC_CONFIG_LEN      9  //#DEFINE USB_CONFIG_DESC_LEN      9 
.................... #DEFINE USB_DESC_INTERFACE_LEN   9  //#DEFINE USB_INTERFACE_DESC_LEN   9 
.................... #DEFINE USB_DESC_CLASS_LEN       9  //#DEFINE USB_CLASS_DESC_LEN       9 
.................... #DEFINE USB_DESC_ENDPOINT_LEN    7  //#DEFINE USB_ENDPOINT_DESC_LEN    7 
....................  
.................... //Standard USB Setup bRequest Codes 
.................... #define USB_STANDARD_REQUEST_GET_STATUS         0x00 
.................... #define USB_STANDARD_REQUEST_CLEAR_FEATURE      0x01 
.................... #define USB_STANDARD_REQUEST_SET_FEATURE        0x03 
.................... #define USB_STANDARD_REQUEST_SET_ADDRESS        0x05 
.................... #define USB_STANDARD_REQUEST_GET_DESCRIPTOR     0x06 
.................... #define USB_STANDARD_REQUEST_SET_DESCRIPTOR     0x07 
.................... #define USB_STANDARD_REQUEST_GET_CONFIGURATION  0x08 
.................... #define USB_STANDARD_REQUEST_SET_CONFIGURATION  0x09 
.................... #define USB_STANDARD_REQUEST_GET_INTERFACE      0x0A 
.................... #define USB_STANDARD_REQUEST_SET_INTERFACE      0x0B 
.................... #define USB_STANDARD_REQUEST_SYNCH_FRAME        0x0C 
....................  
.................... //HID Class Setup bRequest Codes 
.................... #define USB_HID_REQUEST_GET_REPORT     0x01 
.................... #define USB_HID_REQUEST_GET_IDLE       0x02 
.................... #define USB_HID_REQUEST_GET_PROTOCOL   0x03 
.................... #define USB_HID_REQUEST_SET_REPORT     0x09 
.................... #define USB_HID_REQUEST_SET_IDLE       0x0A 
.................... #define USB_HID_REQUEST_SET_PROTOCOL   0x0B 
....................  
.................... //types of endpoints as defined in the descriptor 
.................... #define USB_ENDPOINT_TYPE_CONTROL      0x00 
.................... #define USB_ENDPOINT_TYPE_ISOCHRONOUS  0x01 
.................... #define USB_ENDPOINT_TYPE_BULK         0x02 
.................... #define USB_ENDPOINT_TYPE_INTERRUPT    0x03 
....................  
.................... //types of endpoints used internally in this api 
.................... #define USB_ENABLE_DISABLED     0 
.................... #define USB_ENABLE_BULK         0x01 
.................... #define USB_ENABLE_ISOCHRONOUS  0x02 
.................... #define USB_ENABLE_INTERRUPT    0x03 
.................... #define USB_ENABLE_CONTROL      0x04 
....................  
.................... //// DO NOT CHANGE THE FOLLOWING VALUES: 
....................  
.................... enum USB_STATES {GET_DESCRIPTOR=1,SET_ADDRESS=2,NONE=0}; 
....................  
.................... enum USB_DTS_BIT {USB_DTS_DATA1=1, USB_DTS_TOGGLE=2, USB_DTS_DATA0=0, 
....................                    USB_DTS_STALL=3, USB_DTS_USERX=4}; 
....................  
.................... enum USB_GETDESC_TYPES {USB_GETDESC_CONFIG_TYPE=0,USB_GETDESC_HIDREPORT_TYPE=1,USB_GETDESC_STRING_TYPE=2,USB_GETDESC_DEVICE_TYPE=3}; 
....................  
.................... #if USB_OPT_FOR_ROM 
.................... struct { 
....................    USB_STATES dev_req;   //what did the last setup token set us up to do?.  init at none 
....................    int  curr_config;  //our current config.  start at none/powered (NOT THAT THIS LIMITS US TO 3 CONFIGURATIONS) 
....................    int status_device; //Holds our state for Set_Feature and Clear_Feature 
....................    USB_GETDESC_TYPES getdesc_type;   //which get_descriptor() we are handling 
.................... } USB_stack_status; 
.................... #else 
.................... struct { 
....................    USB_STATES dev_req:2;   //what did the last setup token set us up to do?.  init at none 
....................    int  Curr_config:2;  //our current config.  start at none/powered (NOT THAT THIS LIMITS US TO 3 CONFIGURATIONS) 
....................    int status_device:2; //Holds our state for Set_Feature and Clear_Feature 
....................    USB_GETDESC_TYPES getdesc_type:2;   //which get_descriptor() we are handling 
.................... } USB_stack_status; 
.................... #endif 
....................  
.................... int16 __usb_kbhit_status; 
....................  
.................... /// *** User function prototypes 
.................... void usb_wait_for_enumeration(void); 
.................... int1 usb_unermated(void); 
.................... int8 usb_gets(int8 endpoint, int8 * ptr, int16 max, int16 timeout); 
.................... int1 usb_puts(int8 endpoint, int8 * ptr, int16 len, int8 timeout); 
....................  
.................... /// *** Token and request hanlder function prototypes 
.................... void usb_token_reset(); 
....................  
.................... void usb_put_0len_0(void); 
.................... void usb_request_send_response(int len);   //always sends usb_ep0_rx_buffer[] to endpoint 0 with a toggle of DATA 
....................  
.................... void usb_match_registers(int8 endpoint, int16 *status, int16 *buffer, int8 *size); 
....................  
.................... void usb_isr_tok_in_dne(int8 endpoint); 
.................... void usb_isr_tok_out_dne(int8 endpoint); 
.................... void usb_isr_tok_setup_dne(void); 
....................  
.................... void usb_isr_tkn_setup_StandardEndpoint(void); 
.................... void usb_isr_tkn_setup_StandardDevice(void); 
.................... void usb_isr_tkn_setup_StandardInterface(void); 
....................  
.................... #IF USB_HID_DEVICE 
....................    void usb_isr_tkn_setup_ClassInterface(void); 
.................... #ENDIF 
....................  
.................... void usb_Get_Descriptor(void); 
.................... void usb_copy_desc_seg_to_ep(void); 
....................  
.................... void usb_finish_set_address(void); 
....................  
.................... //*** ENABLE RX ENDPOINTS AND BUFFERS 
....................  
.................... //--------- endpoint 0 defines ---------- 
.................... #define USB_EP0_TX_ENABLE  USB_ENABLE_CONTROL 
.................... #define USB_EP0_RX_ENABLE  USB_ENABLE_CONTROL 
.................... #define USB_EP0_RX_SIZE    USB_MAX_EP0_PACKET_LENGTH  //endpoint 0 is setup, and should always be the MAX_PACKET_LENGTH.  Slow speed specifies 8 
.................... #define USB_EP0_TX_SIZE    USB_MAX_EP0_PACKET_LENGTH  //endpoint 0 is setup, and should always be the MAX_PACKET_LENGTH.  Slow speed specifies 8 
....................  
.................... //--------- endpoint 1 defines ---------- 
.................... #ifndef USB_EP1_TX_ENABLE 
....................  #define USB_EP1_TX_ENABLE USB_ENABLE_DISABLED 
.................... #endif 
.................... #ifndef USB_EP1_RX_ENABLE 
....................  #define USB_EP1_RX_ENABLE USB_ENABLE_DISABLED 
.................... #endif 
....................  
.................... #if USB_EP1_RX_ENABLE==USB_ENABLE_DISABLED 
....................  #ifdef USB_EP1_RX_SIZE 
....................   #undef USB_EP1_RX_SIZE 
....................  #endif 
....................  #define USB_EP1_RX_SIZE 0 
.................... #else 
....................  #ifndef USB_EP1_RX_SIZE 
....................   #error You enabled EP1 for RX but didn't specify endpoint size 
....................  #endif 
.................... #endif 
....................  
.................... #if USB_EP1_TX_ENABLE==USB_ENABLE_DISABLED 
....................  #ifdef USB_EP1_TX_SIZE 
....................   #undef USB_EP1_TX_SIZE 
....................  #endif 
....................  #define USB_EP1_TX_SIZE 0 
.................... #else 
....................  #ifndef USB_EP1_TX_SIZE 
....................   #error You enabled EP1 for TX but didn't specify endpoint size 
....................  #endif 
.................... #endif 
....................  
....................  
.................... //--------- endpoint 2 defines ---------- 
.................... #ifndef USB_EP2_TX_ENABLE 
....................  #define USB_EP2_TX_ENABLE USB_ENABLE_DISABLED 
.................... #endif 
.................... #ifndef USB_EP2_RX_ENABLE 
....................  #define USB_EP2_RX_ENABLE USB_ENABLE_DISABLED 
.................... #endif 
....................  
.................... #if USB_EP2_RX_ENABLE==USB_ENABLE_DISABLED 
....................  #ifdef USB_EP2_RX_SIZE 
....................   #undef USB_EP2_RX_SIZE 
....................  #endif 
....................  #define USB_EP2_RX_SIZE 0 
.................... #else 
....................  #ifndef USB_EP2_RX_SIZE 
....................   #error You enabled EP2 for RX but didn't specify endpoint size 
....................  #endif 
.................... #endif 
....................  
.................... #if USB_EP2_TX_ENABLE==USB_ENABLE_DISABLED 
....................  #ifdef USB_EP2_TX_SIZE 
....................   #undef USB_EP2_TX_SIZE 
....................  #endif 
....................  #define USB_EP2_TX_SIZE 0 
.................... #else 
....................  #ifndef USB_EP2_TX_SIZE 
....................   #error You enabled EP2 for TX but didn't specify endpoint size 
....................  #endif 
.................... #endif 
....................  
....................  
.................... //--------- endpoint 3 defines ---------- 
.................... #ifndef USB_EP3_TX_ENABLE 
....................  #define USB_EP3_TX_ENABLE USB_ENABLE_DISABLED 
.................... #endif 
.................... #ifndef USB_EP3_RX_ENABLE 
....................  #define USB_EP3_RX_ENABLE USB_ENABLE_DISABLED 
.................... #endif 
....................  
.................... #if USB_EP3_RX_ENABLE==USB_ENABLE_DISABLED 
....................  #ifdef USB_EP3_RX_SIZE 
....................   #undef USB_EP3_RX_SIZE 
....................  #endif 
....................  #define USB_EP3_RX_SIZE 0 
.................... #else 
....................  #ifndef USB_EP3_RX_SIZE 
....................   #error You enabled EP3 for RX but didn't specify endpoint size 
....................  #endif 
.................... #endif 
....................  
.................... #if USB_EP3_TX_ENABLE==USB_ENABLE_DISABLED 
....................  #ifdef USB_EP3_TX_SIZE 
....................   #undef USB_EP3_TX_SIZE 
....................  #endif 
....................  #define USB_EP3_TX_SIZE 0 
.................... #else 
....................  #ifndef USB_EP3_TX_SIZE 
....................   #error You enabled EP3 for TX but didn't specify endpoint size 
....................  #endif 
.................... #endif 
....................  
....................  
.................... //--------- endpoint 4 defines ---------- 
.................... #ifndef USB_EP4_TX_ENABLE 
....................  #define USB_EP4_TX_ENABLE USB_ENABLE_DISABLED 
.................... #endif 
.................... #ifndef USB_EP4_RX_ENABLE 
....................  #define USB_EP4_RX_ENABLE USB_ENABLE_DISABLED 
.................... #endif 
....................  
.................... #if USB_EP4_RX_ENABLE==USB_ENABLE_DISABLED 
....................  #ifdef USB_EP4_RX_SIZE 
....................   #undef USB_EP4_RX_SIZE 
....................  #endif 
....................  #define USB_EP4_RX_SIZE 0 
.................... #else 
....................  #ifndef USB_EP4_RX_SIZE 
....................   #error You enabled EP4 for RX but didn't specify endpoint size 
....................  #endif 
.................... #endif 
....................  
.................... #if USB_EP4_TX_ENABLE==USB_ENABLE_DISABLED 
....................  #ifdef USB_EP4_TX_SIZE 
....................   #undef USB_EP4_TX_SIZE 
....................  #endif 
....................  #define USB_EP4_TX_SIZE 0 
.................... #else 
....................  #ifndef USB_EP4_TX_SIZE 
....................   #error You enabled EP4 for TX but didn't specify endpoint size 
....................  #endif 
.................... #endif 
....................  
....................  
.................... //--------- endpoint 5 defines ---------- 
.................... #ifndef USB_EP5_TX_ENABLE 
....................  #define USB_EP5_TX_ENABLE USB_ENABLE_DISABLED 
.................... #endif 
.................... #ifndef USB_EP5_RX_ENABLE 
....................  #define USB_EP5_RX_ENABLE USB_ENABLE_DISABLED 
.................... #endif 
....................  
.................... #if USB_EP5_RX_ENABLE==USB_ENABLE_DISABLED 
....................  #ifdef USB_EP5_RX_SIZE 
....................   #undef USB_EP5_RX_SIZE 
....................  #endif 
....................  #define USB_EP5_RX_SIZE 0 
.................... #else 
....................  #ifndef USB_EP5_RX_SIZE 
....................   #error You enabled EP5 for RX but didn't specify endpoint size 
....................  #endif 
.................... #endif 
....................  
.................... #if USB_EP5_TX_ENABLE==USB_ENABLE_DISABLED 
....................  #ifdef USB_EP5_TX_SIZE 
....................   #undef USB_EP5_TX_SIZE 
....................  #endif 
....................  #define USB_EP5_TX_SIZE 0 
.................... #else 
....................  #ifndef USB_EP5_TX_SIZE 
....................   #error You enabled EP5 for TX but didn't specify endpoint size 
....................  #endif 
.................... #endif 
....................  
....................  
.................... //--------- endpoint 6 defines ---------- 
.................... #ifndef USB_EP6_TX_ENABLE 
....................  #define USB_EP6_TX_ENABLE USB_ENABLE_DISABLED 
.................... #endif 
.................... #ifndef USB_EP6_RX_ENABLE 
....................  #define USB_EP6_RX_ENABLE USB_ENABLE_DISABLED 
.................... #endif 
....................  
.................... #if USB_EP6_RX_ENABLE==USB_ENABLE_DISABLED 
....................  #ifdef USB_EP6_RX_SIZE 
....................   #undef USB_EP6_RX_SIZE 
....................  #endif 
....................  #define USB_EP6_RX_SIZE 0 
.................... #else 
....................  #ifndef USB_EP6_RX_SIZE 
....................   #error You enabled EP6 for RX but didn't specify endpoint size 
....................  #endif 
.................... #endif 
....................  
.................... #if USB_EP6_TX_ENABLE==USB_ENABLE_DISABLED 
....................  #ifdef USB_EP6_TX_SIZE 
....................   #undef USB_EP6_TX_SIZE 
....................  #endif 
....................  #define USB_EP6_TX_SIZE 0 
.................... #else 
....................  #ifndef USB_EP6_TX_SIZE 
....................   #error You enabled EP6 for TX but didn't specify endpoint size 
....................  #endif 
.................... #endif 
....................  
....................  
.................... //--------- endpoint 7 defines ---------- 
.................... #ifndef USB_EP7_TX_ENABLE 
....................  #define USB_EP7_TX_ENABLE USB_ENABLE_DISABLED 
.................... #endif 
.................... #ifndef USB_EP7_RX_ENABLE 
....................  #define USB_EP7_RX_ENABLE USB_ENABLE_DISABLED 
.................... #endif 
....................  
.................... #if USB_EP7_RX_ENABLE==USB_ENABLE_DISABLED 
....................  #ifdef USB_EP7_RX_SIZE 
....................   #undef USB_EP7_RX_SIZE 
....................  #endif 
....................  #define USB_EP7_RX_SIZE 0 
.................... #else 
....................  #ifndef USB_EP7_RX_SIZE 
....................   #error You enabled EP7 for RX but didn't specify endpoint size 
....................  #endif 
.................... #endif 
....................  
.................... #if USB_EP7_TX_ENABLE==USB_ENABLE_DISABLED 
....................  #ifdef USB_EP7_TX_SIZE 
....................   #undef USB_EP7_TX_SIZE 
....................  #endif 
....................  #define USB_EP7_TX_SIZE 0 
.................... #else 
....................  #ifndef USB_EP7_TX_SIZE 
....................   #error You enabled EP7 for TX but didn't specify endpoint size 
....................  #endif 
.................... #endif 
....................  
....................  
.................... //--------- endpoint 8 defines ---------- 
.................... #ifndef USB_EP8_TX_ENABLE 
....................  #define USB_EP8_TX_ENABLE USB_ENABLE_DISABLED 
.................... #endif 
.................... #ifndef USB_EP8_RX_ENABLE 
....................  #define USB_EP8_RX_ENABLE USB_ENABLE_DISABLED 
.................... #endif 
....................  
.................... #if USB_EP8_RX_ENABLE==USB_ENABLE_DISABLED 
....................  #ifdef USB_EP8_RX_SIZE 
....................   #undef USB_EP8_RX_SIZE 
....................  #endif 
....................  #define USB_EP8_RX_SIZE 0 
.................... #else 
....................  #ifndef USB_EP8_RX_SIZE 
....................   #error You enabled EP8 for RX but didn't specify endpoint size 
....................  #endif 
.................... #endif 
....................  
.................... #if USB_EP8_TX_ENABLE==USB_ENABLE_DISABLED 
....................  #ifdef USB_EP8_TX_SIZE 
....................   #undef USB_EP8_TX_SIZE 
....................  #endif 
....................  #define USB_EP8_TX_SIZE 0 
.................... #else 
....................  #ifndef USB_EP8_TX_SIZE 
....................   #error You enabled EP8 for TX but didn't specify endpoint size 
....................  #endif 
.................... #endif 
....................  
....................  
.................... //--------- endpoint 9 defines ---------- 
.................... #ifndef USB_EP9_TX_ENABLE 
....................  #define USB_EP9_TX_ENABLE USB_ENABLE_DISABLED 
.................... #endif 
.................... #ifndef USB_EP9_RX_ENABLE 
....................  #define USB_EP9_RX_ENABLE USB_ENABLE_DISABLED 
.................... #endif 
....................  
.................... #if USB_EP9_RX_ENABLE==USB_ENABLE_DISABLED 
....................  #ifdef USB_EP9_RX_SIZE 
....................   #undef USB_EP9_RX_SIZE 
....................  #endif 
....................  #define USB_EP9_RX_SIZE 0 
.................... #else 
....................  #ifndef USB_EP9_RX_SIZE 
....................   #error You enabled EP9 for RX but didn't specify endpoint size 
....................  #endif 
.................... #endif 
....................  
.................... #if USB_EP9_TX_ENABLE==USB_ENABLE_DISABLED 
....................  #ifdef USB_EP9_TX_SIZE 
....................   #undef USB_EP9_TX_SIZE 
....................  #endif 
....................  #define USB_EP9_TX_SIZE 0 
.................... #else 
....................  #ifndef USB_EP9_TX_SIZE 
....................   #error You enabled EP9 for TX but didn't specify endpoint size 
....................  #endif 
.................... #endif 
....................  
....................  
.................... //--------- endpoint 10 defines ---------- 
.................... #ifndef USB_EP10_TX_ENABLE 
....................  #define USB_EP10_TX_ENABLE USB_ENABLE_DISABLED 
.................... #endif 
.................... #ifndef USB_EP10_RX_ENABLE 
....................  #define USB_EP10_RX_ENABLE USB_ENABLE_DISABLED 
.................... #endif 
....................  
.................... #if USB_EP10_RX_ENABLE==USB_ENABLE_DISABLED 
....................  #ifdef USB_EP10_RX_SIZE 
....................   #undef USB_EP10_RX_SIZE 
....................  #endif 
....................  #define USB_EP10_RX_SIZE 0 
.................... #else 
....................  #ifndef USB_EP10_RX_SIZE 
....................   #error You enabled EP10 for RX but didn't specify endpoint size 
....................  #endif 
.................... #endif 
....................  
.................... #if USB_EP10_TX_ENABLE==USB_ENABLE_DISABLED 
....................  #ifdef USB_EP10_TX_SIZE 
....................   #undef USB_EP10_TX_SIZE 
....................  #endif 
....................  #define USB_EP10_TX_SIZE 0 
.................... #else 
....................  #ifndef USB_EP10_TX_SIZE 
....................   #error You enabled EP10 for TX but didn't specify endpoint size 
....................  #endif 
.................... #endif 
....................  
....................  
.................... //--------- endpoint 11 defines ---------- 
.................... #ifndef USB_EP11_TX_ENABLE 
....................  #define USB_EP11_TX_ENABLE USB_ENABLE_DISABLED 
.................... #endif 
.................... #ifndef USB_EP11_RX_ENABLE 
....................  #define USB_EP11_RX_ENABLE USB_ENABLE_DISABLED 
.................... #endif 
....................  
.................... #if USB_EP11_RX_ENABLE==USB_ENABLE_DISABLED 
....................  #ifdef USB_EP11_RX_SIZE 
....................   #undef USB_EP11_RX_SIZE 
....................  #endif 
....................  #define USB_EP11_RX_SIZE 0 
.................... #else 
....................  #ifndef USB_EP11_RX_SIZE 
....................   #error You enabled EP11 for RX but didn't specify endpoint size 
....................  #endif 
.................... #endif 
....................  
.................... #if USB_EP11_TX_ENABLE==USB_ENABLE_DISABLED 
....................  #ifdef USB_EP11_TX_SIZE 
....................   #undef USB_EP11_TX_SIZE 
....................  #endif 
....................  #define USB_EP11_TX_SIZE 0 
.................... #else 
....................  #ifndef USB_EP11_TX_SIZE 
....................   #error You enabled EP11 for TX but didn't specify endpoint size 
....................  #endif 
.................... #endif 
....................  
....................  
.................... //--------- endpoint 12 defines ---------- 
.................... #ifndef USB_EP12_TX_ENABLE 
....................  #define USB_EP12_TX_ENABLE USB_ENABLE_DISABLED 
.................... #endif 
.................... #ifndef USB_EP12_RX_ENABLE 
....................  #define USB_EP12_RX_ENABLE USB_ENABLE_DISABLED 
.................... #endif 
....................  
.................... #if USB_EP12_RX_ENABLE==USB_ENABLE_DISABLED 
....................  #ifdef USB_EP12_RX_SIZE 
....................   #undef USB_EP12_RX_SIZE 
....................  #endif 
....................  #define USB_EP12_RX_SIZE 0 
.................... #else 
....................  #ifndef USB_EP12_RX_SIZE 
....................   #error You enabled EP12 for RX but didn't specify endpoint size 
....................  #endif 
.................... #endif 
....................  
.................... #if USB_EP12_TX_ENABLE==USB_ENABLE_DISABLED 
....................  #ifdef USB_EP12_TX_SIZE 
....................   #undef USB_EP12_TX_SIZE 
....................  #endif 
....................  #define USB_EP12_TX_SIZE 0 
.................... #else 
....................  #ifndef USB_EP12_TX_SIZE 
....................   #error You enabled EP12 for TX but didn't specify endpoint size 
....................  #endif 
.................... #endif 
....................  
....................  
.................... //--------- endpoint 13 defines ---------- 
.................... #ifndef USB_EP13_TX_ENABLE 
....................  #define USB_EP13_TX_ENABLE USB_ENABLE_DISABLED 
.................... #endif 
.................... #ifndef USB_EP13_RX_ENABLE 
....................  #define USB_EP13_RX_ENABLE USB_ENABLE_DISABLED 
.................... #endif 
....................  
.................... #if USB_EP13_RX_ENABLE==USB_ENABLE_DISABLED 
....................  #ifdef USB_EP13_RX_SIZE 
....................   #undef USB_EP13_RX_SIZE 
....................  #endif 
....................  #define USB_EP13_RX_SIZE 0 
.................... #else 
....................  #ifndef USB_EP13_RX_SIZE 
....................   #error You enabled EP13 for RX but didn't specify endpoint size 
....................  #endif 
.................... #endif 
....................  
.................... #if USB_EP13_TX_ENABLE==USB_ENABLE_DISABLED 
....................  #ifdef USB_EP13_TX_SIZE 
....................   #undef USB_EP13_TX_SIZE 
....................  #endif 
....................  #define USB_EP13_TX_SIZE 0 
.................... #else 
....................  #ifndef USB_EP13_TX_SIZE 
....................   #error You enabled EP13 for TX but didn't specify endpoint size 
....................  #endif 
.................... #endif 
....................  
....................  
.................... //--------- endpoint 14 defines ---------- 
.................... #ifndef USB_EP14_TX_ENABLE 
....................  #define USB_EP14_TX_ENABLE USB_ENABLE_DISABLED 
.................... #endif 
.................... #ifndef USB_EP14_RX_ENABLE 
....................  #define USB_EP14_RX_ENABLE USB_ENABLE_DISABLED 
.................... #endif 
....................  
.................... #if USB_EP14_RX_ENABLE==USB_ENABLE_DISABLED 
....................  #ifdef USB_EP14_RX_SIZE 
....................   #undef USB_EP14_RX_SIZE 
....................  #endif 
....................  #define USB_EP14_RX_SIZE 0 
.................... #else 
....................  #ifndef USB_EP14_RX_SIZE 
....................   #error You enabled EP14 for RX but didn't specify endpoint size 
....................  #endif 
.................... #endif 
....................  
.................... #if USB_EP14_TX_ENABLE==USB_ENABLE_DISABLED 
....................  #ifdef USB_EP14_TX_SIZE 
....................   #undef USB_EP14_TX_SIZE 
....................  #endif 
....................  #define USB_EP14_TX_SIZE 0 
.................... #else 
....................  #ifndef USB_EP14_TX_SIZE 
....................   #error You enabled EP14 for TX but didn't specify endpoint size 
....................  #endif 
.................... #endif 
....................  
....................  
.................... //--------- endpoint 15 defines ---------- 
.................... #ifndef USB_EP15_TX_ENABLE 
....................  #define USB_EP15_TX_ENABLE USB_ENABLE_DISABLED 
.................... #endif 
.................... #ifndef USB_EP15_RX_ENABLE 
....................  #define USB_EP15_RX_ENABLE USB_ENABLE_DISABLED 
.................... #endif 
....................  
.................... #if USB_EP15_RX_ENABLE==USB_ENABLE_DISABLED 
....................  #ifdef USB_EP15_RX_SIZE 
....................   #undef USB_EP15_RX_SIZE 
....................  #endif 
....................  #define USB_EP15_RX_SIZE 0 
.................... #else 
....................  #ifndef USB_EP15_RX_SIZE 
....................   #error You enabled EP15 for RX but didn't specify endpoint size 
....................  #endif 
.................... #endif 
....................  
.................... #if USB_EP15_TX_ENABLE==USB_ENABLE_DISABLED 
....................  #ifdef USB_EP15_TX_SIZE 
....................   #undef USB_EP15_TX_SIZE 
....................  #endif 
....................  #define USB_EP15_TX_SIZE 0 
.................... #else 
....................  #ifndef USB_EP15_TX_SIZE 
....................   #error You enabled EP15 for TX but didn't specify endpoint size 
....................  #endif 
.................... #endif 
....................  
.................... const int8 usb_ep_tx_type[16]={ 
....................   USB_EP0_TX_ENABLE, USB_EP1_TX_ENABLE, USB_EP2_TX_ENABLE, 
....................   USB_EP3_TX_ENABLE, USB_EP4_TX_ENABLE, USB_EP5_TX_ENABLE, 
....................   USB_EP6_TX_ENABLE, USB_EP7_TX_ENABLE, USB_EP8_TX_ENABLE, 
....................   USB_EP9_TX_ENABLE, USB_EP10_TX_ENABLE, USB_EP11_TX_ENABLE, 
....................   USB_EP12_TX_ENABLE, USB_EP13_TX_ENABLE, USB_EP14_TX_ENABLE, 
....................   USB_EP15_TX_ENABLE 
.................... }; 
....................  
.................... const int8 usb_ep_rx_type[16]={ 
....................   USB_EP0_RX_ENABLE, USB_EP1_RX_ENABLE, USB_EP2_RX_ENABLE, 
....................   USB_EP3_RX_ENABLE, USB_EP4_RX_ENABLE, USB_EP5_RX_ENABLE, 
....................   USB_EP6_RX_ENABLE, USB_EP7_RX_ENABLE, USB_EP8_RX_ENABLE, 
....................   USB_EP9_RX_ENABLE, USB_EP10_RX_ENABLE, USB_EP11_RX_ENABLE, 
....................   USB_EP12_RX_ENABLE, USB_EP13_RX_ENABLE, USB_EP14_RX_ENABLE, 
....................   USB_EP15_RX_ENABLE 
.................... }; 
....................  
.................... const int16 usb_ep_tx_size[16]={ 
....................   USB_EP0_TX_SIZE, USB_EP1_TX_SIZE, USB_EP2_TX_SIZE, 
....................   USB_EP3_TX_SIZE, USB_EP4_TX_SIZE, USB_EP5_TX_SIZE, 
....................   USB_EP6_TX_SIZE, USB_EP7_TX_SIZE, USB_EP8_TX_SIZE, 
....................   USB_EP9_TX_SIZE, USB_EP10_TX_SIZE, USB_EP11_TX_SIZE, 
....................   USB_EP12_TX_SIZE, USB_EP13_TX_SIZE, USB_EP14_TX_SIZE, 
....................   USB_EP15_TX_SIZE 
.................... }; 
....................  
.................... const int16 usb_ep_rx_size[16]={ 
....................   USB_EP0_RX_SIZE, USB_EP1_RX_SIZE, USB_EP2_RX_SIZE, 
....................   USB_EP3_RX_SIZE, USB_EP4_RX_SIZE, USB_EP5_RX_SIZE, 
....................   USB_EP6_RX_SIZE, USB_EP7_RX_SIZE, USB_EP8_RX_SIZE, 
....................   USB_EP9_RX_SIZE, USB_EP10_RX_SIZE, USB_EP11_RX_SIZE, 
....................   USB_EP12_RX_SIZE, USB_EP13_RX_SIZE, USB_EP14_RX_SIZE, 
....................   USB_EP15_RX_SIZE 
.................... }; 
....................  
.................... #ENDIF 
....................  
....................    ////////////////////////////////////////////////////////////////// 
....................    /// 
....................    ///  HID Report.  Tells HID driver how to handle and deal with 
....................    ///  received data.  HID Reports can be extremely complex, 
....................    ///  see HID specifcation for help on writing your own. 
....................    /// 
....................    ////////////////////////////////////////////////////////////////// 
....................    const char USB_CLASS_SPECIFIC_DESC[] = { 
....................       6, 0, 255,    // Usage Page = Vendor Defined 
....................       9, 1,         // Usage = IO device 
....................       0xa1, 1,      // Collection = Application 
....................       0x19, 1,      // Usage minimum 
....................       0x29, 8,      // Usage maximum 
....................  
....................       0x15, 0x80,   // Logical minimum (-128) 
....................       0x25, 0x7F,   // Logical maximum (127) 
....................  
....................       0x75, 8,      // Report size = 8 (bits) 
....................       0x95, 64,     // Report count =  64 bytes    
....................       0x81, 2,      // Input (Data, Var, Abs) 
....................       0x19, 1,      // Usage minimum 
....................       0x29, 8,      // Usage maximum 
....................       0x75, 8,      // Report size = 8 (bits) 
....................       0x95, 64,     // Report count = 64 bytes    
....................       0x91, 2,      // Output (Data, Var, Abs) 
....................       0xc0          // End Collection 
....................    }; 
....................  
....................    //if a class has an extra descriptor not part of the config descriptor, 
....................    // this lookup table defines where to look for it in the const 
....................    // USB_CLASS_SPECIFIC_DESC[] array. 
....................    //first element is the config number (if your device has more than one config) 
....................    //second element is which interface number 
....................    //set element to 0xFFFF if this config/interface combo doesn't exist 
....................    const int16 USB_CLASS_SPECIFIC_DESC_LOOKUP[USB_NUM_CONFIGURATIONS][1] = 
....................    { 
....................    //config 1 
....................       //interface 0 
....................          0 
....................    }; 
....................  
....................    //if a class has an extra descriptor not part of the config descriptor, 
....................    // this lookup table defines the size of that descriptor. 
....................    //first element is the config number (if your device has more than one config) 
....................    //second element is which interface number 
....................    //set element to 0xFFFF if this config/interface combo doesn't exist 
....................    const int16 USB_CLASS_SPECIFIC_DESC_LOOKUP_SIZE[USB_NUM_CONFIGURATIONS][1] = 
....................    { 
....................    //config 1 
....................       //interface 0 
....................          32 
....................    }; 
.................... ////////////////////////////////////////////////////////////////// 
.................... /// 
.................... ///   start config descriptor 
.................... ///   right now CCS only supports one configuration descriptor. 
.................... ///   the config, interface, class, and endpoint goes into this array. 
.................... /// 
.................... ////////////////////////////////////////////////////////////////// 
....................  
....................    #DEFINE USB_TOTAL_CONFIG_LEN      41  //config+interface+class+endpoint+endpoint (2 endpoints) 
....................  
....................    const char USB_CONFIG_DESC[] = { 
....................    //IN ORDER TO COMPLY WITH WINDOWS HOSTS, THE ORDER OF THIS ARRAY MUST BE: 
....................       //    config(s) 
....................       //    interface(s) 
....................       //    class(es) 
....................       //    endpoint(s) 
....................  
....................    //config_descriptor for config index 1 
....................          USB_DESC_CONFIG_LEN, //length of descriptor size          ==1 
....................          USB_DESC_CONFIG_TYPE, //constant CONFIGURATION (CONFIGURATION 0x02)     ==2 
....................          USB_TOTAL_CONFIG_LEN,0, //size of all data returned for this config      ==3,4 
....................          1, //number of interfaces this device supports       ==5 
....................          0x01, //identifier for this configuration.  (IF we had more than one configurations)      ==6 
....................          0x00, //index of string descriptor for this configuration      ==7 
....................          0xC0, //bit 6=1 if self powered, bit 5=1 if supports remote wakeup (we don't), bits 0-4 unused and bit7=1         ==8 
....................          0x32, //maximum bus power required (maximum milliamperes/2)  (0x32 = 100mA) 
....................  
....................    //interface descriptor 1 
....................          USB_DESC_INTERFACE_LEN, //length of descriptor      =10 
....................          USB_DESC_INTERFACE_TYPE, //constant INTERFACE (INTERFACE 0x04)       =11 
....................          0x00, //number defining this interface (IF we had more than one interface)    ==12 
....................          0x00, //alternate setting     ==13 
....................          2, //number of endpoins, except 0 (pic167xx has 3, but we dont have to use all).       ==14 
....................          0x03, //class code, 03 = HID     ==15 
....................          0x00, //subclass code //boot     ==16 
....................          0x00, //protocol code      ==17 
....................          0x00, //index of string descriptor for interface      ==18 
....................  
....................    //class descriptor 1  (HID) 
....................          USB_DESC_CLASS_LEN, //length of descriptor    ==19 
....................          USB_DESC_CLASS_TYPE, //descriptor type (0x21 == HID)      ==20 
....................          0x00,0x01, //hid class release number (1.0) (try 1.10)      ==21,22 
....................          0x00, //localized country code (0 = none)       ==23 
....................          0x01, //number of hid class descriptors that follow (1)      ==24 
....................          0x22, //report descriptor type (0x22 == HID)                ==25 
....................          USB_CLASS_SPECIFIC_DESC_LOOKUP_SIZE[0][0], 0x00, //length of report descriptor   ==26,27 
....................  
....................    //endpoint descriptor 
....................          USB_DESC_ENDPOINT_LEN, //length of descriptor                   ==28 
....................          USB_DESC_ENDPOINT_TYPE, //constant ENDPOINT (ENDPOINT 0x05)          ==29 
....................          0x81, //endpoint number and direction (0x81 = EP1 IN)       ==30 
....................          0x03, //transfer type supported (0x03 is interrupt)         ==31 
....................          USB_EP1_TX_SIZE,0x00, //maximum packet size supported                  ==32,33 
....................          10,  //polling interval, in ms.  (cant be smaller than 10)      ==34 
....................  
....................    //endpoint descriptor 
....................          USB_DESC_ENDPOINT_LEN, //length of descriptor                   ==35 
....................          USB_DESC_ENDPOINT_TYPE, //constant ENDPOINT (ENDPOINT 0x05)          ==36 
....................          0x01, //endpoint number and direction (0x01 = EP1 OUT)      ==37 
....................          0x03, //transfer type supported (0x03 is interrupt)         ==38 
....................          USB_EP1_RX_SIZE,0x00, //maximum packet size supported                  ==39,40 
....................          10 //polling interval, in ms.  (cant be smaller than 10)    ==41 
....................    }; 
....................  
....................    //****** BEGIN CONFIG DESCRIPTOR LOOKUP TABLES ******** 
....................    //since we can't make pointers to constants in certain pic16s, this is an offset table to find 
....................    //  a specific descriptor in the above table. 
....................  
....................    //NOTE: DO TO A LIMITATION OF THE CCS CODE, ALL HID INTERFACES MUST START AT 0 AND BE SEQUENTIAL 
....................    //      FOR EXAMPLE, IF YOU HAVE 2 HID INTERFACES THEY MUST BE INTERFACE 0 AND INTERFACE 1 
....................    #define USB_NUM_HID_INTERFACES   1 
....................  
....................    //the maximum number of interfaces seen on any config 
....................    //for example, if config 1 has 1 interface and config 2 has 2 interfaces you must define this as 2 
....................    #define USB_MAX_NUM_INTERFACES   1 
....................  
....................    //define how many interfaces there are per config.  [0] is the first config, etc. 
....................    const char USB_NUM_INTERFACES[USB_NUM_CONFIGURATIONS]={1}; 
....................  
....................    //define where to find class descriptors 
....................    //first dimension is the config number 
....................    //second dimension specifies which interface 
....................    //last dimension specifies which class in this interface to get, but most will only have 1 class per interface 
....................    //if a class descriptor is not valid, set the value to 0xFFFF 
....................    const int16 USB_CLASS_DESCRIPTORS[USB_NUM_CONFIGURATIONS][1][1]= 
....................    { 
....................    //config 1 
....................       //interface 0 
....................          //class 1 
....................          18 
....................    }; 
....................  
....................    #if (sizeof(USB_CONFIG_DESC) != USB_TOTAL_CONFIG_LEN) 
....................       #error USB_TOTAL_CONFIG_LEN not defined correctly 
....................    #endif 
....................  
....................  
.................... ////////////////////////////////////////////////////////////////// 
.................... /// 
.................... ///   start device descriptors 
.................... /// 
.................... ////////////////////////////////////////////////////////////////// 
....................  
....................    const char USB_DEVICE_DESC[USB_DESC_DEVICE_LEN] ={ 
....................       //starts of with device configuration. only one possible 
....................          USB_DESC_DEVICE_LEN, //the length of this report   ==1 
....................          0x01, //the constant DEVICE (DEVICE 0x01)  ==2 
....................          0x10,0x01, //usb version in bcd (pic167xx is 1.1) ==3,4 
....................          0x00, //class code ==5 
....................          0x00, //subclass code ==6 
....................          0x00, //protocol code ==7 
....................          USB_MAX_EP0_PACKET_LENGTH, //max packet size for endpoint 0. (SLOW SPEED SPECIFIES 8) ==8 
....................          0x61,0x04, //vendor id (0x04D8 is Microchip, or is it 0x0461 ??) 
....................          0x04,0x00, //product id   ==11,12  //don't use ffff says usb-by-example guy.  oops 
....................          0x00,0x01, //device release number  ==13,14 
....................          0x01, //index of string description of manufacturer. therefore we point to string_1 array (see below)  ==15 
....................          0x02, //index of string descriptor of the product  ==16 
....................          0x00, //index of string descriptor of serial number  ==17 
....................          USB_NUM_CONFIGURATIONS  //number of possible configurations  ==18 
....................    }; 
....................  
....................  
.................... ////////////////////////////////////////////////////////////////// 
.................... /// 
.................... ///   start string descriptors 
.................... ///   String 0 is a special language string, and must be defined.  People in U.S.A. can leave this alone. 
.................... /// 
.................... ///   You must define the length else get_next_string_character() will not see the string 
.................... ///   Current code only supports 10 strings (0 thru 9) 
.................... /// 
.................... ////////////////////////////////////////////////////////////////// 
....................  
.................... //the offset of the starting location of each string.  offset[0] is the start of string 0, offset[1] is the start of string 1, etc. 
.................... char USB_STRING_DESC_OFFSET[]={0,4,12}; 
....................  
.................... char const USB_STRING_DESC[]={ 
....................    //string 0 = S/N 
....................          4, //length of string index 
....................          USB_DESC_STRING_TYPE, //descriptor type 0x03 (STRING) 
....................          0x00,0x04,   //Microsoft Defined for US-English 
....................    //string 1 = Manufacturer 
....................          8, //length of string index 
....................          USB_DESC_STRING_TYPE, //descriptor type 0x03 (STRING) 
....................          'Z',0, 
....................          'W',0, 
....................          'L',0, 
....................    //string 2 = product name 
....................          20, //length of string index 
....................          USB_DESC_STRING_TYPE, //descriptor type 0x03 (STRING) 
....................          'I',0, 
....................          'N',0, 
....................          'C',0, 
....................          'U',0, 
....................          'M',0 
....................          'O',0, 
....................          'T',0, 
....................          'O',0, 
....................          'R',0, 
....................          
....................          
.................... }; 
....................  
.................... #ENDIF 
....................  
.................... #include <usb.c>                  // handles usb setup tokens and get descriptor reports 
.................... /////////////////////////////////////////////////////////////////////////// 
.................... ////                             usb.c                                 //// 
.................... ////                                                                   //// 
.................... //// Standard USB request and token handler code.                      //// 
.................... ////                                                                   //// 
.................... //// This file is part of CCS's PIC USB driver code, which includes:   //// 
.................... ////   usb_desc_*.h - an example set of config and device descriptor   //// 
.................... ////   usb.c - USB token and request handler code                      //// 
.................... ////   usb.h - definitions, prototypes and global variables            //// 
.................... ////                                                                   //// 
.................... //// The following examples are provided by CCS:                       //// 
.................... ////   ex_usb_mouse.c - A HID Mouse.                                   //// 
.................... ////   ex_usb_hid.c - A custom application using HID protocol.         //// 
.................... ////   ex_usb_kbmouse.c - A HID Mouse/Keyboard combo using multiple    //// 
.................... ////                      interfaces.                                  //// 
.................... ////   ex_usb_kbmouse.c - A HID Mouse/Keyboard combo using multiple    //// 
.................... ////                      HID Reports.                                 //// 
.................... ////   ex_usb_scope.c - A digital oscilloscope using a custom          //// 
.................... ////                    protocol requiring custom Windows drivers.     //// 
.................... ////                                                                   //// 
.................... //// Many settings important to the USB API are defined in usb.h.      //// 
.................... //// See the documentation in usb.h about these settings.              //// 
.................... ////                                                                   //// 
.................... //// The majority of this code is called and used by the interrupt     //// 
.................... //// generated by the hardware level, and therefore it is not meant    //// 
.................... //// to be called by the user.  The following functions are of use to  //// 
.................... //// the user (for more docs on the functions, read the comments at    //// 
.................... //// each function):                                                   //// 
.................... ////                                                                   //// 
.................... ////    **********************  FUNCTIONS  ***********************     //// 
.................... ////                                                                   //// 
.................... //// usb_enumerated() - returns TRUE if device has been enumerated     //// 
.................... ////                    (configured) by host, FALSE if it has not.     //// 
.................... ////                    Do not try to use the USB peripheral until you //// 
.................... ////                    are enumerated.                                //// 
.................... ////                                                                   //// 
.................... //// usb_wait_for_enumeration() - Sits in an infinte loop until device //// 
.................... ////                              is enumerated.                       //// 
.................... ////                                                                   //// 
.................... //// usb_kbhit() - Returns true if OUT endpoint contains data from     //// 
.................... ////               host.                                               //// 
.................... ////                                                                   //// 
.................... //// usb_puts() - Sends a multiple packet message to the host          //// 
.................... ////                                                                   //// 
.................... //// usb_gets() - Gets multiple packets from the host                  //// 
.................... ////                                                                   //// 
.................... //// The rest of the functions in this file are part of the USB        //// 
.................... //// interrupt service routine and are not meant to be called by the   //// 
.................... //// user.                                                             //// 
.................... ////                                                                   //// 
.................... ////   *************************  NOTE  **************************     //// 
.................... ////    This code will not create a multiple configuration device.     //// 
.................... ////    If you wish to create a multiple configuration device then you //// 
.................... ////    will have to modify these drivers.                             //// 
.................... ////                                                                   //// 
.................... ////   *************************  NOTE  **************************     //// 
.................... ////   This code does not support Get_Idle or Set_Idle HID-specific    //// 
.................... ////   requests.  These requests are optional.  If you want to support //// 
.................... ////   these requests you must provide the code yourself.  See         //// 
.................... ////   usb_isr_tkn_setup_ClassInterface() if you wish to add this      //// 
.................... ////   support.                                                        //// 
.................... /////////////////////////////////////////////////////////////////////////// 
.................... ////                                                                   //// 
.................... //// If you wish to provide your own USB peripheral hardware layer, it //// 
.................... //// must include the following functions:                             //// 
.................... ////                                                                   //// 
.................... //// void usb_stall_ep(int8 endpoint);                                 //// 
.................... //// void usb_unstall_ep(int8 endpoint);                               //// 
.................... //// int1 usb_endpoint_stalled(int8 endpoint);                         //// 
.................... //// void usb_set_address(int8 address);                               //// 
.................... //// void usb_set_configured(int config);                              //// 
.................... //// int8 usb_get_packet(int8 endpoint, int8 * ptr, int8 max);         //// 
.................... //// int1 usb_put_packet(int endpoint, int * ptr, int len, USB_DTS_BIT toggle); //// 
.................... //// void usb_request_send_response(int8 len);                                //// 
.................... //// int1 usb_kbhit(int8 endpoint);                                    //// 
.................... ////                                                                   //// 
.................... //// CCS provides a USB peripheral hardware layer for PIC16C7x5        //// 
.................... //// (pic_usb.h), 18Fxx5x (pic18_usb.h) and National's USBN960x        //// 
.................... //// (usbn960x.c).  See these files for more documentation.            //// 
.................... ////                                                                   //// 
.................... /////////////////////////////////////////////////////////////////////////// 
.................... ////                                                                   //// 
.................... //// Version History:                                                  //// 
.................... ////                                                                   //// 
.................... //// July 13th, 2005:                                                  //// 
.................... ////  usb_puts() packet_size and this_packet_len changed to 16bits.    //// 
.................... ////  usb_gets() len, packet_size and this_packet_len to 16bits.       //// 
.................... ////                                                                   //// 
.................... //// June 20th, 2005:                                                  //// 
.................... ////  Initial 18fxx5x release.                                         //// 
.................... ////  usb_kbhit() removed, usb_kbhit() now implemented in hardware     //// 
.................... ////    layer.                                                         //// 
.................... ////                                                                   //// 
.................... //// May 13th, 2005:                                                   //// 
.................... ////  Beta release, only works with 18Fxx5x hardware layer.            //// 
.................... ////  Now supports multiple interfaces (many defines in descriptors    //// 
.................... ////   will have to be changed, see examples)                          //// 
.................... ////  TODO: alot of indexing and length handling for descriptors is    //// 
.................... ////   only 8bit, so make sure all descriptor tables are less than     //// 
.................... ////   256 bytes long.                                                 //// 
.................... ////                                                                   //// 
.................... //// Apr 21st, 2005:                                                   //// 
.................... ////  Initial Alpha Release with PIC18Fxx5x support.  (ONLY TESTED     //// 
.................... ////   WITH 18F4550)                                                   //// 
.................... ////  usb_puts() doesn't need max packet size as a paremeter, uses     //// 
.................... ////   usb_ep_tx_size[] defined in usb.h                               //// 
.................... ////  usb_puts() timeout parameter now in ms, not seconds.             //// 
.................... ////  USB Stack no longer buffers incoming data.  If there is data to  //// 
.................... ////   get usb_kbhit(en) will return TRUE and the data will sit in     //// 
.................... ////   the endpoint buffer until you usb_get_packet(), which will      //// 
.................... ////   then free the endpoint buffer for more data.  This affects      //// 
.................... ////   routines such as usb_gets() and usb_kbhit().                    //// 
.................... ////  usb_gets() no longer reads buffered data (see above note),       //// 
.................... ////   now it reads multiple packets in the same way usb_puts()        //// 
.................... ////   writes multiple packets                                         //// 
.................... ////  usb_kbhit() is hardware specific, so has been moved to hardware  //// 
.................... ////   layer.                                                          //// 
.................... ////                                                                   //// 
.................... //// Nov 11th, 2004:                                                   //// 
.................... ////  No longer includes wrong descriptor header.                      //// 
.................... ////                                                                   //// 
.................... //// June 24th, 2004:                                                  //// 
.................... ////  Optimization and cleanup.                                        //// 
.................... ////                The following definitions changed:                 //// 
.................... ////  USB_EPx_TX_ENABLE and USB_EPx_RX_ENABLE have changed. See usb.h  //// 
.................... ////  USB_CONFIG_DESCRIPTORS[] removed                                 //// 
.................... ////  USB_CONFIG_DESC_LEN changed to USB_DESC_CONFIG_LEN               //// 
.................... ////  USB_INTERFACE_DESC_LEN changed to USB_DESC_INTERFACE_LEN         //// 
.................... ////  USB_CLASS_DESC_LEN changed to USB_DESC_CLASS_LEN                 //// 
.................... ////  USB_ENDPOINT_DESC_LEN changed to USB_DESC_ENDPOINT_LEN           //// 
.................... ////  USB_CONFIG_DESC_KEY changed to USB_DESC_CONFIG_TYPE              //// 
.................... ////  USB_INTERFACE_DESC_KEY changed to USB_DESC_INTERFACE_TYPE        //// 
.................... ////  USB_CLASS_DESC_KEY changed to USB_DESC_CLASS_TYPE                //// 
.................... ////  USB_ENDPOINT_DESC_KEY changed to USB_DESC_ENDPOINT_TYPE          //// 
.................... ////  USB_STRING_X[] arrays removed, see USB_STRING_DESC[] and         //// 
.................... ////                                 USB_STRING_DESC_OFFSET[]          //// 
.................... ////  dev_req, curr_config, status_device and getdesc_type global      //// 
.................... ////        variables moved into struct USB_stack_status               //// 
.................... ////                                                                   //// 
.................... //// December 5th, 2003: Fixed a potential bug where descriptors are   //// 
.................... ////         evenly dividable by 8 (MAX_EP0_PACKET_SIZE)               //// 
.................... ////                                                                   //// 
.................... //// October 15th, 2003: Support for boot protocol added.              //// 
.................... ////         Set USB_HID_BOOT_PROTOCOL to TRUE to support this.        //// 
.................... ////         The array hid_protocol[] saves which protocol mode each   //// 
.................... ////         interface is in.  It is your applications job to send     //// 
.................... ////         data that either fit the boot protocol or HID protocol.   //// 
.................... ////                                                                   //// 
.................... //// May 6th, 2003: Fixed a potential stack overflow using PCM         //// 
.................... ////                                                                   //// 
.................... //// October 28th, 2002: Problem with usb_puts and timeout fixed.      //// 
.................... ////                                                                   //// 
.................... //// October 28th, 2002: Typo fixed in get_next_string_character(),    //// 
.................... ////                     although it didn't cause any serious problems //// 
.................... ////                                                                   //// 
.................... //// October 25th, 2002: Another change to usb_puts() was made to fix  //// 
.................... ////                     problems with multiple packet messages        //// 
.................... //// October 29th, 2002: Fixed a problem with multiple packet string   //// 
.................... ////                     descriptors that require a 0 len packet to    //// 
.................... ////                     end message.                                  //// 
.................... ////                                                                   //// 
.................... //// October 23rd, 2002: usb_puts() will bomb out of error quicker     //// 
.................... ////                                                                   //// 
.................... //// August 2nd, 2002: Initial Public Release                          //// 
.................... ////                                                                   //// 
.................... /////////////////////////////////////////////////////////////////////////// 
.................... ////        (C) Copyright 1996,2005 Custom Computer Services           //// 
.................... //// This source code may only be used by licensed users of the CCS    //// 
.................... //// C compiler.  This source code may only be distributed to other    //// 
.................... //// licensed users of the CCS C compiler.  No other use,              //// 
.................... //// reproduction or distribution is permitted without written         //// 
.................... //// permission.  Derivative programs created using this software      //// 
.................... //// in object code form are not restricted in any way.                //// 
.................... /////////////////////////////////////////////////////////////////////////// 
....................  
.................... #IFNDEF __USB_DRIVER__ 
.................... #DEFINE __USB_DRIVER__ 
....................  
.................... #include <usb.h> 
.................... /////////////////////////////////////////////////////////////////////////// 
.................... ////                              usb.h                                //// 
.................... ////                                                                   //// 
.................... //// Function protypes, defintions and globals used by CCS USB driver  //// 
.................... ////                                                                   //// 
.................... //// This file is part of CCS's PIC USB driver code, which includes:   //// 
.................... ////   usb_desc_*.h - an example set of config and device descriptor   //// 
.................... ////   usb.c - USB token and request handler code                      //// 
.................... ////   usb.h - definitions, prototypes and global variables            //// 
.................... ////                                                                   //// 
.................... //// The following examples are provided by CCS:                       //// 
.................... ////   ex_usb_mouse.c - A HID Mouse.                                   //// 
.................... ////   ex_usb_hid.c - A custom application using HID protocol.         //// 
.................... ////   ex_usb_kbmouse.c - A HID Mouse/Keyboard combo using multiple    //// 
.................... ////                      interfaces.                                  //// 
.................... ////   ex_usb_kbmouse.c - A HID Mouse/Keyboard combo using multiple    //// 
.................... ////                      HID Reports.                                 //// 
.................... ////   ex_usb_scope.c - A digital oscilloscope using a custom          //// 
.................... ////                    protocol requiring custom Windows drivers.     //// 
.................... ////                                                                   //// 
.................... ////                   **** DEFINITIONS *****                          //// 
.................... //// The following definitions are declared here, but can be           //// 
.................... //// overwritten in your code.  Unless needed otherwise, leave         //// 
.................... //// to default value.  If confused about a definition read the        //// 
.................... //// comments at each defintion                                        //// 
.................... ////                                                                   //// 
.................... //// USB_HID_IDLE (FALSE) - Set to TRUE if your device supports        //// 
.................... ////                            Set_Idle HID class request.  Set to    //// 
.................... ////                            False if you do not (device will       //// 
.................... ////                            send a Wrong-state if computer         //// 
.................... ////                            sends a Set_Idle / Get_Idle command)   //// 
.................... ////                            NOTE: If you set to TRUE you must      //// 
.................... ////                            provide your own code.  See            //// 
.................... ////                            usb_isr_tkn_setup_ClassInterface() in  //// 
.................... ////                            usb.c                                  //// 
.................... ////                                                                   //// 
.................... //// USB_HID_BOOT_PROTOCOL (FALSE) - Set to TRUE if your device supports   //// 
.................... ////                            Set_Protocl HID class request. Set to  //// 
.................... ////                            False if you do not (device will       //// 
.................... ////                            send a Wrong-state if computer         //// 
.................... ////                            sends a Set_Protocl / Get_Protocol     //// 
.................... ////                            command).                              //// 
.................... ////                            NOTE: If you set to TRUE you must      //// 
.................... ////                            provide your own code in the           //// 
.................... ////                            application that properly send boot    //// 
.................... ////                            or HID packets.                        //// 
.................... ////                                                                   //// 
.................... //// USB_MAX_EP0_PACKET_LENGTH (8) - Max Packet size for Endpoint 0.   //// 
.................... ////                            Only the 18Fxx5x USB peripheral can    //// 
.................... ////                            have a value larger than 8.            //// 
.................... ////                                                                   //// 
.................... //// USB_EPx_RX_ENABLE (USB_ENABLE_DISABLED) - Where x is the          //// 
.................... ////                         endpoint number. Change this define       //// 
.................... ////                         to specify what kind of transfer method   //// 
.................... ////                         this RX (PC to device) endpoint uses.     //// 
.................... ////                       Here is the list of valid transfer methods: //// 
.................... ////                             USB_ENABLE_CONTROL                    //// 
.................... ////                             USB_ENABLE_ISOCHRONOUS                //// 
.................... ////                             USB_ENABLE_BULK                       //// 
.................... ////                             USB_ENABLE_INTERRUPT                  //// 
.................... ////                             USB_ENABLE_DISABLED                   //// 
.................... ////                        Don't forget that you must specify the     //// 
.................... ////                        transfer method properly in your endpoint  //// 
.................... ////                        descriptor, too.                           //// 
.................... ////                                                                   //// 
.................... //// USB_EPx_RX_SIZE (0) - For some hardware it is important to know   //// 
.................... ////                       how much memory to reserve for receiving    //// 
.................... ////                       packets.                                    //// 
.................... ////                                                                   //// 
.................... ////  *** NOTE *** You must have both USB_EPx_RX_ENABLE defined and    //// 
.................... ////               USB_EPx_RX_SIZE defined (non 0) to enable a RX      //// 
.................... ////               endpoint.                                           //// 
.................... ////  *** NOTE *** Endpoint 0 is always enabled.                       //// 
.................... ////                                                                   //// 
.................... //// USB_EPx_TX_ENABLE (USB_ENABLE_DISABLED) - Where x is the          //// 
.................... ////                         endpoint number. Change this define       //// 
.................... ////                         to specify what kind of transfer method   //// 
.................... ////                         this TX (device to PC) endpoint uses.     //// 
.................... ////                       Here is the list of valid transfer methods: //// 
.................... ////                             USB_ENABLE_CONTROL                    //// 
.................... ////                             USB_ENABLE_ISOCHRONOUS                //// 
.................... ////                             USB_ENABLE_BULK                       //// 
.................... ////                             USB_ENABLE_INTERRUPT                  //// 
.................... ////                             USB_ENABLE_DISABLED                   //// 
.................... ////                        Don't forget that you must specify the     //// 
.................... ////                        transfer method properly in your endpoint  //// 
.................... ////                        descriptor, too.                           //// 
.................... ////                                                                   //// 
.................... //// USB_EPx_TX_SIZE (0) - For some hardware it is important to know   //// 
.................... ////                       how much memory to reserve for transmitting //// 
.................... ////                       packets.                                    //// 
.................... ////                                                                   //// 
.................... ////  *** NOTE *** You must have both USB_EPx_TX_ENABLE defined and    //// 
.................... ////               USB_EPx_TX_SIZE defined (non 0) to enable a TX      //// 
.................... ////               endpoint.                                           //// 
.................... ////                                                                   //// 
.................... ////                                                                   //// 
.................... //// USB_HID_DEVICE (TRUE) - HID devices require extra code to handle  //// 
.................... ////                         HID requests.  You can disable to save    //// 
.................... ////                         ROM space if you are not using a HID      //// 
.................... ////                         device.  If you are not using a HID       //// 
.................... ////                         device you must provide your own O/S      //// 
.................... ////                         (Windows) driver.                         //// 
.................... ////                                                                   //// 
.................... //// The other definitions should not be changed.                      //// 
.................... ////                                                                   //// 
.................... /////////////////////////////////////////////////////////////////////////// 
.................... ////                                                                   //// 
.................... //// Version History:                                                  //// 
.................... ////                                                                   //// 
.................... //// July 13th, 2005:                                                  //// 
.................... ////  usb_ep_tx_size[] and usb_ep_rx_size[] changed to 16bits          //// 
.................... ////                                                                   //// 
.................... //// June 20th, 2005:                                                  //// 
.................... ////  Initial 18fxx5x release                                          //// 
.................... ////                                                                   //// 
.................... //// May 13th, 2005:                                                   //// 
.................... ////  Beta release, only works with 18Fxx5x hardware layer.            //// 
.................... ////  Now supports multiple interfaces (many defines in descriptors    //// 
.................... ////   will have to be changed, see examples)                          //// 
.................... ////                                                                   //// 
.................... //// Mar 21st, 2005:                                                   //// 
.................... ////  Initial Alpha Release with PIC18Fxx5x support.  (ONLY TESTED     //// 
.................... ////   WITH 18F4550)                                                   //// 
.................... ////  usb_gets() and usb_puts() changed (see usb.c)                    //// 
.................... ////                                                                   //// 
.................... //// June 24th, 2004:                                                  //// 
.................... ////  Optimization and cleanup.                                        //// 
.................... ////                The following definitions changed:                 //// 
.................... ////  USB_EPx_TX_ENABLE and USB_EPx_RX_ENABLE have changed. See usb.h  //// 
.................... ////  USB_CONFIG_DESCRIPTORS[] removed                                 //// 
.................... ////  USB_CONFIG_DESC_LEN changed to USB_DESC_CONFIG_LEN               //// 
.................... ////  USB_INTERFACE_DESC_LEN changed to USB_DESC_INTERFACE_LEN         //// 
.................... ////  USB_CLASS_DESC_LEN changed to USB_DESC_CLASS_LEN                 //// 
.................... ////  USB_ENDPOINT_DESC_LEN changed to USB_DESC_ENDPOINT_LEN           //// 
.................... ////  USB_CONFIG_DESC_KEY changed to USB_DESC_CONFIG_TYPE              //// 
.................... ////  USB_INTERFACE_DESC_KEY changed to USB_DESC_INTERFACE_TYPE        //// 
.................... ////  USB_CLASS_DESC_KEY changed to USB_DESC_CLASS_TYPE                //// 
.................... ////  USB_ENDPOINT_DESC_KEY changed to USB_DESC_ENDPOINT_TYPE          //// 
.................... ////  USB_STRING_X[] arrays removed, see USB_STRING_DESC[] and         //// 
.................... ////                                 USB_STRING_DESC_OFFSET[]          //// 
.................... ////  dev_req, curr_config, status_device and getdesc_type global      //// 
.................... ////        variables moved into struct USB_stack_status               //// 
.................... ////                                                                   //// 
.................... //// October 15th, 2003: Support for boot protocol added.              //// 
.................... ////         Set USB_HID_BOOT_PROTOCOL to TRUE to support this.        //// 
.................... ////         The array hid_protocol[] saves which protocol mode each   //// 
.................... ////         interface is in.  It is your applications job to send     //// 
.................... ////         data that either fit the boot protocol or HID protocol.   //// 
.................... ////                                                                   //// 
.................... //// May 6th, 2003: Fixed a potential stack overflow using PCM         //// 
.................... ////                                                                   //// 
.................... //// October 29th, 2002: New definition added to USB_STATES            //// 
.................... ////                                                                   //// 
.................... //// August 2nd, 2002: Initial Public Release                          //// 
.................... ////                                                                   //// 
.................... /////////////////////////////////////////////////////////////////////////// 
.................... ////        (C) Copyright 1996,2005 Custom Computer Services           //// 
.................... //// This source code may only be used by licensed users of the CCS    //// 
.................... //// C compiler.  This source code may only be distributed to other    //// 
.................... //// licensed users of the CCS C compiler.  No other use,              //// 
.................... //// reproduction or distribution is permitted without written         //// 
.................... //// permission.  Derivative programs created using this software      //// 
.................... //// in object code form are not restricted in any way.                //// 
.................... /////////////////////////////////////////////////////////////////////////// 
....................  
....................  
.................... #IFNDEF __USB_PROTOTYPES__ 
.................... #DEFINE __USB_PROTOTYPES__ 
....................  
.................... #IFNDEF USB_HID_BOOT_PROTOCOL 
....................    #DEFINE USB_HID_BOOT_PROTOCOL FALSE 
.................... #ENDIF 
....................  
.................... #IFNDEF USB_HID_IDLE 
....................    #DEFINE USB_HID_IDLE FALSE 
.................... #ENDIF 
....................  
.................... //should the compiler add the extra HID handler code?  Defaults to yes. 
.................... #IFNDEF USB_HID_DEVICE 
....................    #DEFINE USB_HID_DEVICE TRUE 
.................... #ENDIF 
....................  
.................... #IFNDEF USB_CDC_DEVICE 
....................    #DEFINE USB_CDC_DEVICE FALSE 
.................... #ENDIF 
....................  
.................... #ifndef USB_OPT_FOR_ROM 
....................    #define USB_OPT_FOR_ROM TRUE  //set to false to opt for less RAM, true to opt for less ROM 
.................... #endif 
....................  
.................... #IFNDEF USB_MAX_EP0_PACKET_LENGTH 
....................   #DEFINE USB_MAX_EP0_PACKET_LENGTH 8 
.................... #ENDIF 
....................  
.................... //CCS only supports one configuration at this time 
.................... #DEFINE USB_NUM_CONFIGURATIONS 1 //DO NOT CHANGE 
....................  
.................... //PID values for tokens (see page 48 of USB Complete ed.1) 
.................... #define PID_IN       0x09  //device to host transactions 
.................... #define PID_OUT      0x01  //host to device transactions 
.................... #define PID_SETUP    0x0D  //host to device setup transaction 
.................... #define PID_ACK      0x02  //receiver accepts error-free data packet 
.................... #define PID_DATA0    0x03  //data packet with even sync bit 
.................... #define PID_SOF      0x05  //start of framer marker and frame number 
.................... #define PID_NAK      0x0A  //receiver can't accept data or sender cant send data or has no data to transmit 
.................... #define PID_DATA1    0x0B  //data packet with odd sync bit 
.................... #define PID_PRE      0x0C  //preamble issued by host.  enables downstream traffic to low-speed device 
.................... #define PID_STALL    0x0E  //a control request isnt supported or the endpoint is halted 
....................  
.................... //Key which identifies descritpors 
.................... #DEFINE USB_DESC_DEVICE_TYPE     0x01  //#DEFINE USB_DEVICE_DESC_KEY      0x01 
.................... #DEFINE USB_DESC_CONFIG_TYPE     0x02  //#DEFINE USB_CONFIG_DESC_KEY      0x02 
.................... #DEFINE USB_DESC_STRING_TYPE     0x03  //#DEFINE USB_STRING_DESC_KEY      0x03 
.................... #DEFINE USB_DESC_INTERFACE_TYPE  0x04  //#DEFINE USB_INTERFACE_DESC_KEY   0x04 
.................... #DEFINE USB_DESC_ENDPOINT_TYPE   0x05  //#DEFINE USB_ENDPOINT_DESC_KEY    0x05 
.................... #DEFINE USB_DESC_CLASS_TYPE      0x21  //#DEFINE USB_CLASS_DESC_KEY       0x21 
.................... #DEFINE USB_DESC_HIDREPORT_TYPE  0x22 
....................  
.................... //The length of each descriptor 
.................... #DEFINE USB_DESC_DEVICE_LEN      18 //#DEFINE USB_DEVICE_DESC_LEN      18 
.................... #DEFINE USB_DESC_CONFIG_LEN      9  //#DEFINE USB_CONFIG_DESC_LEN      9 
.................... #DEFINE USB_DESC_INTERFACE_LEN   9  //#DEFINE USB_INTERFACE_DESC_LEN   9 
.................... #DEFINE USB_DESC_CLASS_LEN       9  //#DEFINE USB_CLASS_DESC_LEN       9 
.................... #DEFINE USB_DESC_ENDPOINT_LEN    7  //#DEFINE USB_ENDPOINT_DESC_LEN    7 
....................  
.................... //Standard USB Setup bRequest Codes 
.................... #define USB_STANDARD_REQUEST_GET_STATUS         0x00 
.................... #define USB_STANDARD_REQUEST_CLEAR_FEATURE      0x01 
.................... #define USB_STANDARD_REQUEST_SET_FEATURE        0x03 
.................... #define USB_STANDARD_REQUEST_SET_ADDRESS        0x05 
.................... #define USB_STANDARD_REQUEST_GET_DESCRIPTOR     0x06 
.................... #define USB_STANDARD_REQUEST_SET_DESCRIPTOR     0x07 
.................... #define USB_STANDARD_REQUEST_GET_CONFIGURATION  0x08 
.................... #define USB_STANDARD_REQUEST_SET_CONFIGURATION  0x09 
.................... #define USB_STANDARD_REQUEST_GET_INTERFACE      0x0A 
.................... #define USB_STANDARD_REQUEST_SET_INTERFACE      0x0B 
.................... #define USB_STANDARD_REQUEST_SYNCH_FRAME        0x0C 
....................  
.................... //HID Class Setup bRequest Codes 
.................... #define USB_HID_REQUEST_GET_REPORT     0x01 
.................... #define USB_HID_REQUEST_GET_IDLE       0x02 
.................... #define USB_HID_REQUEST_GET_PROTOCOL   0x03 
.................... #define USB_HID_REQUEST_SET_REPORT     0x09 
.................... #define USB_HID_REQUEST_SET_IDLE       0x0A 
.................... #define USB_HID_REQUEST_SET_PROTOCOL   0x0B 
....................  
.................... //types of endpoints as defined in the descriptor 
.................... #define USB_ENDPOINT_TYPE_CONTROL      0x00 
.................... #define USB_ENDPOINT_TYPE_ISOCHRONOUS  0x01 
.................... #define USB_ENDPOINT_TYPE_BULK         0x02 
.................... #define USB_ENDPOINT_TYPE_INTERRUPT    0x03 
....................  
.................... //types of endpoints used internally in this api 
.................... #define USB_ENABLE_DISABLED     0 
.................... #define USB_ENABLE_BULK         0x01 
.................... #define USB_ENABLE_ISOCHRONOUS  0x02 
.................... #define USB_ENABLE_INTERRUPT    0x03 
.................... #define USB_ENABLE_CONTROL      0x04 
....................  
.................... //// DO NOT CHANGE THE FOLLOWING VALUES: 
....................  
.................... enum USB_STATES {GET_DESCRIPTOR=1,SET_ADDRESS=2,NONE=0}; 
....................  
.................... enum USB_DTS_BIT {USB_DTS_DATA1=1, USB_DTS_TOGGLE=2, USB_DTS_DATA0=0, 
....................                    USB_DTS_STALL=3, USB_DTS_USERX=4}; 
....................  
.................... enum USB_GETDESC_TYPES {USB_GETDESC_CONFIG_TYPE=0,USB_GETDESC_HIDREPORT_TYPE=1,USB_GETDESC_STRING_TYPE=2,USB_GETDESC_DEVICE_TYPE=3}; 
....................  
.................... #if USB_OPT_FOR_ROM 
.................... struct { 
....................    USB_STATES dev_req;   //what did the last setup token set us up to do?.  init at none 
....................    int  curr_config;  //our current config.  start at none/powered (NOT THAT THIS LIMITS US TO 3 CONFIGURATIONS) 
....................    int status_device; //Holds our state for Set_Feature and Clear_Feature 
....................    USB_GETDESC_TYPES getdesc_type;   //which get_descriptor() we are handling 
.................... } USB_stack_status; 
.................... #else 
.................... struct { 
....................    USB_STATES dev_req:2;   //what did the last setup token set us up to do?.  init at none 
....................    int  Curr_config:2;  //our current config.  start at none/powered (NOT THAT THIS LIMITS US TO 3 CONFIGURATIONS) 
....................    int status_device:2; //Holds our state for Set_Feature and Clear_Feature 
....................    USB_GETDESC_TYPES getdesc_type:2;   //which get_descriptor() we are handling 
.................... } USB_stack_status; 
.................... #endif 
....................  
.................... int16 __usb_kbhit_status; 
....................  
.................... /// *** User function prototypes 
.................... void usb_wait_for_enumeration(void); 
.................... int1 usb_unermated(void); 
.................... int8 usb_gets(int8 endpoint, int8 * ptr, int16 max, int16 timeout); 
.................... int1 usb_puts(int8 endpoint, int8 * ptr, int16 len, int8 timeout); 
....................  
.................... /// *** Token and request hanlder function prototypes 
.................... void usb_token_reset(); 
....................  
.................... void usb_put_0len_0(void); 
.................... void usb_request_send_response(int len);   //always sends usb_ep0_rx_buffer[] to endpoint 0 with a toggle of DATA 
....................  
.................... void usb_match_registers(int8 endpoint, int16 *status, int16 *buffer, int8 *size); 
....................  
.................... void usb_isr_tok_in_dne(int8 endpoint); 
.................... void usb_isr_tok_out_dne(int8 endpoint); 
.................... void usb_isr_tok_setup_dne(void); 
....................  
.................... void usb_isr_tkn_setup_StandardEndpoint(void); 
.................... void usb_isr_tkn_setup_StandardDevice(void); 
.................... void usb_isr_tkn_setup_StandardInterface(void); 
....................  
.................... #IF USB_HID_DEVICE 
....................    void usb_isr_tkn_setup_ClassInterface(void); 
.................... #ENDIF 
....................  
.................... void usb_Get_Descriptor(void); 
.................... void usb_copy_desc_seg_to_ep(void); 
....................  
.................... void usb_finish_set_address(void); 
....................  
.................... //*** ENABLE RX ENDPOINTS AND BUFFERS 
....................  
.................... //--------- endpoint 0 defines ---------- 
.................... #define USB_EP0_TX_ENABLE  USB_ENABLE_CONTROL 
.................... #define USB_EP0_RX_ENABLE  USB_ENABLE_CONTROL 
.................... #define USB_EP0_RX_SIZE    USB_MAX_EP0_PACKET_LENGTH  //endpoint 0 is setup, and should always be the MAX_PACKET_LENGTH.  Slow speed specifies 8 
.................... #define USB_EP0_TX_SIZE    USB_MAX_EP0_PACKET_LENGTH  //endpoint 0 is setup, and should always be the MAX_PACKET_LENGTH.  Slow speed specifies 8 
....................  
.................... //--------- endpoint 1 defines ---------- 
.................... #ifndef USB_EP1_TX_ENABLE 
....................  #define USB_EP1_TX_ENABLE USB_ENABLE_DISABLED 
.................... #endif 
.................... #ifndef USB_EP1_RX_ENABLE 
....................  #define USB_EP1_RX_ENABLE USB_ENABLE_DISABLED 
.................... #endif 
....................  
.................... #if USB_EP1_RX_ENABLE==USB_ENABLE_DISABLED 
....................  #ifdef USB_EP1_RX_SIZE 
....................   #undef USB_EP1_RX_SIZE 
....................  #endif 
....................  #define USB_EP1_RX_SIZE 0 
.................... #else 
....................  #ifndef USB_EP1_RX_SIZE 
....................   #error You enabled EP1 for RX but didn't specify endpoint size 
....................  #endif 
.................... #endif 
....................  
.................... #if USB_EP1_TX_ENABLE==USB_ENABLE_DISABLED 
....................  #ifdef USB_EP1_TX_SIZE 
....................   #undef USB_EP1_TX_SIZE 
....................  #endif 
....................  #define USB_EP1_TX_SIZE 0 
.................... #else 
....................  #ifndef USB_EP1_TX_SIZE 
....................   #error You enabled EP1 for TX but didn't specify endpoint size 
....................  #endif 
.................... #endif 
....................  
....................  
.................... //--------- endpoint 2 defines ---------- 
.................... #ifndef USB_EP2_TX_ENABLE 
....................  #define USB_EP2_TX_ENABLE USB_ENABLE_DISABLED 
.................... #endif 
.................... #ifndef USB_EP2_RX_ENABLE 
....................  #define USB_EP2_RX_ENABLE USB_ENABLE_DISABLED 
.................... #endif 
....................  
.................... #if USB_EP2_RX_ENABLE==USB_ENABLE_DISABLED 
....................  #ifdef USB_EP2_RX_SIZE 
....................   #undef USB_EP2_RX_SIZE 
....................  #endif 
....................  #define USB_EP2_RX_SIZE 0 
.................... #else 
....................  #ifndef USB_EP2_RX_SIZE 
....................   #error You enabled EP2 for RX but didn't specify endpoint size 
....................  #endif 
.................... #endif 
....................  
.................... #if USB_EP2_TX_ENABLE==USB_ENABLE_DISABLED 
....................  #ifdef USB_EP2_TX_SIZE 
....................   #undef USB_EP2_TX_SIZE 
....................  #endif 
....................  #define USB_EP2_TX_SIZE 0 
.................... #else 
....................  #ifndef USB_EP2_TX_SIZE 
....................   #error You enabled EP2 for TX but didn't specify endpoint size 
....................  #endif 
.................... #endif 
....................  
....................  
.................... //--------- endpoint 3 defines ---------- 
.................... #ifndef USB_EP3_TX_ENABLE 
....................  #define USB_EP3_TX_ENABLE USB_ENABLE_DISABLED 
.................... #endif 
.................... #ifndef USB_EP3_RX_ENABLE 
....................  #define USB_EP3_RX_ENABLE USB_ENABLE_DISABLED 
.................... #endif 
....................  
.................... #if USB_EP3_RX_ENABLE==USB_ENABLE_DISABLED 
....................  #ifdef USB_EP3_RX_SIZE 
....................   #undef USB_EP3_RX_SIZE 
....................  #endif 
....................  #define USB_EP3_RX_SIZE 0 
.................... #else 
....................  #ifndef USB_EP3_RX_SIZE 
....................   #error You enabled EP3 for RX but didn't specify endpoint size 
....................  #endif 
.................... #endif 
....................  
.................... #if USB_EP3_TX_ENABLE==USB_ENABLE_DISABLED 
....................  #ifdef USB_EP3_TX_SIZE 
....................   #undef USB_EP3_TX_SIZE 
....................  #endif 
....................  #define USB_EP3_TX_SIZE 0 
.................... #else 
....................  #ifndef USB_EP3_TX_SIZE 
....................   #error You enabled EP3 for TX but didn't specify endpoint size 
....................  #endif 
.................... #endif 
....................  
....................  
.................... //--------- endpoint 4 defines ---------- 
.................... #ifndef USB_EP4_TX_ENABLE 
....................  #define USB_EP4_TX_ENABLE USB_ENABLE_DISABLED 
.................... #endif 
.................... #ifndef USB_EP4_RX_ENABLE 
....................  #define USB_EP4_RX_ENABLE USB_ENABLE_DISABLED 
.................... #endif 
....................  
.................... #if USB_EP4_RX_ENABLE==USB_ENABLE_DISABLED 
....................  #ifdef USB_EP4_RX_SIZE 
....................   #undef USB_EP4_RX_SIZE 
....................  #endif 
....................  #define USB_EP4_RX_SIZE 0 
.................... #else 
....................  #ifndef USB_EP4_RX_SIZE 
....................   #error You enabled EP4 for RX but didn't specify endpoint size 
....................  #endif 
.................... #endif 
....................  
.................... #if USB_EP4_TX_ENABLE==USB_ENABLE_DISABLED 
....................  #ifdef USB_EP4_TX_SIZE 
....................   #undef USB_EP4_TX_SIZE 
....................  #endif 
....................  #define USB_EP4_TX_SIZE 0 
.................... #else 
....................  #ifndef USB_EP4_TX_SIZE 
....................   #error You enabled EP4 for TX but didn't specify endpoint size 
....................  #endif 
.................... #endif 
....................  
....................  
.................... //--------- endpoint 5 defines ---------- 
.................... #ifndef USB_EP5_TX_ENABLE 
....................  #define USB_EP5_TX_ENABLE USB_ENABLE_DISABLED 
.................... #endif 
.................... #ifndef USB_EP5_RX_ENABLE 
....................  #define USB_EP5_RX_ENABLE USB_ENABLE_DISABLED 
.................... #endif 
....................  
.................... #if USB_EP5_RX_ENABLE==USB_ENABLE_DISABLED 
....................  #ifdef USB_EP5_RX_SIZE 
....................   #undef USB_EP5_RX_SIZE 
....................  #endif 
....................  #define USB_EP5_RX_SIZE 0 
.................... #else 
....................  #ifndef USB_EP5_RX_SIZE 
....................   #error You enabled EP5 for RX but didn't specify endpoint size 
....................  #endif 
.................... #endif 
....................  
.................... #if USB_EP5_TX_ENABLE==USB_ENABLE_DISABLED 
....................  #ifdef USB_EP5_TX_SIZE 
....................   #undef USB_EP5_TX_SIZE 
....................  #endif 
....................  #define USB_EP5_TX_SIZE 0 
.................... #else 
....................  #ifndef USB_EP5_TX_SIZE 
....................   #error You enabled EP5 for TX but didn't specify endpoint size 
....................  #endif 
.................... #endif 
....................  
....................  
.................... //--------- endpoint 6 defines ---------- 
.................... #ifndef USB_EP6_TX_ENABLE 
....................  #define USB_EP6_TX_ENABLE USB_ENABLE_DISABLED 
.................... #endif 
.................... #ifndef USB_EP6_RX_ENABLE 
....................  #define USB_EP6_RX_ENABLE USB_ENABLE_DISABLED 
.................... #endif 
....................  
.................... #if USB_EP6_RX_ENABLE==USB_ENABLE_DISABLED 
....................  #ifdef USB_EP6_RX_SIZE 
....................   #undef USB_EP6_RX_SIZE 
....................  #endif 
....................  #define USB_EP6_RX_SIZE 0 
.................... #else 
....................  #ifndef USB_EP6_RX_SIZE 
....................   #error You enabled EP6 for RX but didn't specify endpoint size 
....................  #endif 
.................... #endif 
....................  
.................... #if USB_EP6_TX_ENABLE==USB_ENABLE_DISABLED 
....................  #ifdef USB_EP6_TX_SIZE 
....................   #undef USB_EP6_TX_SIZE 
....................  #endif 
....................  #define USB_EP6_TX_SIZE 0 
.................... #else 
....................  #ifndef USB_EP6_TX_SIZE 
....................   #error You enabled EP6 for TX but didn't specify endpoint size 
....................  #endif 
.................... #endif 
....................  
....................  
.................... //--------- endpoint 7 defines ---------- 
.................... #ifndef USB_EP7_TX_ENABLE 
....................  #define USB_EP7_TX_ENABLE USB_ENABLE_DISABLED 
.................... #endif 
.................... #ifndef USB_EP7_RX_ENABLE 
....................  #define USB_EP7_RX_ENABLE USB_ENABLE_DISABLED 
.................... #endif 
....................  
.................... #if USB_EP7_RX_ENABLE==USB_ENABLE_DISABLED 
....................  #ifdef USB_EP7_RX_SIZE 
....................   #undef USB_EP7_RX_SIZE 
....................  #endif 
....................  #define USB_EP7_RX_SIZE 0 
.................... #else 
....................  #ifndef USB_EP7_RX_SIZE 
....................   #error You enabled EP7 for RX but didn't specify endpoint size 
....................  #endif 
.................... #endif 
....................  
.................... #if USB_EP7_TX_ENABLE==USB_ENABLE_DISABLED 
....................  #ifdef USB_EP7_TX_SIZE 
....................   #undef USB_EP7_TX_SIZE 
....................  #endif 
....................  #define USB_EP7_TX_SIZE 0 
.................... #else 
....................  #ifndef USB_EP7_TX_SIZE 
....................   #error You enabled EP7 for TX but didn't specify endpoint size 
....................  #endif 
.................... #endif 
....................  
....................  
.................... //--------- endpoint 8 defines ---------- 
.................... #ifndef USB_EP8_TX_ENABLE 
....................  #define USB_EP8_TX_ENABLE USB_ENABLE_DISABLED 
.................... #endif 
.................... #ifndef USB_EP8_RX_ENABLE 
....................  #define USB_EP8_RX_ENABLE USB_ENABLE_DISABLED 
.................... #endif 
....................  
.................... #if USB_EP8_RX_ENABLE==USB_ENABLE_DISABLED 
....................  #ifdef USB_EP8_RX_SIZE 
....................   #undef USB_EP8_RX_SIZE 
....................  #endif 
....................  #define USB_EP8_RX_SIZE 0 
.................... #else 
....................  #ifndef USB_EP8_RX_SIZE 
....................   #error You enabled EP8 for RX but didn't specify endpoint size 
....................  #endif 
.................... #endif 
....................  
.................... #if USB_EP8_TX_ENABLE==USB_ENABLE_DISABLED 
....................  #ifdef USB_EP8_TX_SIZE 
....................   #undef USB_EP8_TX_SIZE 
....................  #endif 
....................  #define USB_EP8_TX_SIZE 0 
.................... #else 
....................  #ifndef USB_EP8_TX_SIZE 
....................   #error You enabled EP8 for TX but didn't specify endpoint size 
....................  #endif 
.................... #endif 
....................  
....................  
.................... //--------- endpoint 9 defines ---------- 
.................... #ifndef USB_EP9_TX_ENABLE 
....................  #define USB_EP9_TX_ENABLE USB_ENABLE_DISABLED 
.................... #endif 
.................... #ifndef USB_EP9_RX_ENABLE 
....................  #define USB_EP9_RX_ENABLE USB_ENABLE_DISABLED 
.................... #endif 
....................  
.................... #if USB_EP9_RX_ENABLE==USB_ENABLE_DISABLED 
....................  #ifdef USB_EP9_RX_SIZE 
....................   #undef USB_EP9_RX_SIZE 
....................  #endif 
....................  #define USB_EP9_RX_SIZE 0 
.................... #else 
....................  #ifndef USB_EP9_RX_SIZE 
....................   #error You enabled EP9 for RX but didn't specify endpoint size 
....................  #endif 
.................... #endif 
....................  
.................... #if USB_EP9_TX_ENABLE==USB_ENABLE_DISABLED 
....................  #ifdef USB_EP9_TX_SIZE 
....................   #undef USB_EP9_TX_SIZE 
....................  #endif 
....................  #define USB_EP9_TX_SIZE 0 
.................... #else 
....................  #ifndef USB_EP9_TX_SIZE 
....................   #error You enabled EP9 for TX but didn't specify endpoint size 
....................  #endif 
.................... #endif 
....................  
....................  
.................... //--------- endpoint 10 defines ---------- 
.................... #ifndef USB_EP10_TX_ENABLE 
....................  #define USB_EP10_TX_ENABLE USB_ENABLE_DISABLED 
.................... #endif 
.................... #ifndef USB_EP10_RX_ENABLE 
....................  #define USB_EP10_RX_ENABLE USB_ENABLE_DISABLED 
.................... #endif 
....................  
.................... #if USB_EP10_RX_ENABLE==USB_ENABLE_DISABLED 
....................  #ifdef USB_EP10_RX_SIZE 
....................   #undef USB_EP10_RX_SIZE 
....................  #endif 
....................  #define USB_EP10_RX_SIZE 0 
.................... #else 
....................  #ifndef USB_EP10_RX_SIZE 
....................   #error You enabled EP10 for RX but didn't specify endpoint size 
....................  #endif 
.................... #endif 
....................  
.................... #if USB_EP10_TX_ENABLE==USB_ENABLE_DISABLED 
....................  #ifdef USB_EP10_TX_SIZE 
....................   #undef USB_EP10_TX_SIZE 
....................  #endif 
....................  #define USB_EP10_TX_SIZE 0 
.................... #else 
....................  #ifndef USB_EP10_TX_SIZE 
....................   #error You enabled EP10 for TX but didn't specify endpoint size 
....................  #endif 
.................... #endif 
....................  
....................  
.................... //--------- endpoint 11 defines ---------- 
.................... #ifndef USB_EP11_TX_ENABLE 
....................  #define USB_EP11_TX_ENABLE USB_ENABLE_DISABLED 
.................... #endif 
.................... #ifndef USB_EP11_RX_ENABLE 
....................  #define USB_EP11_RX_ENABLE USB_ENABLE_DISABLED 
.................... #endif 
....................  
.................... #if USB_EP11_RX_ENABLE==USB_ENABLE_DISABLED 
....................  #ifdef USB_EP11_RX_SIZE 
....................   #undef USB_EP11_RX_SIZE 
....................  #endif 
....................  #define USB_EP11_RX_SIZE 0 
.................... #else 
....................  #ifndef USB_EP11_RX_SIZE 
....................   #error You enabled EP11 for RX but didn't specify endpoint size 
....................  #endif 
.................... #endif 
....................  
.................... #if USB_EP11_TX_ENABLE==USB_ENABLE_DISABLED 
....................  #ifdef USB_EP11_TX_SIZE 
....................   #undef USB_EP11_TX_SIZE 
....................  #endif 
....................  #define USB_EP11_TX_SIZE 0 
.................... #else 
....................  #ifndef USB_EP11_TX_SIZE 
....................   #error You enabled EP11 for TX but didn't specify endpoint size 
....................  #endif 
.................... #endif 
....................  
....................  
.................... //--------- endpoint 12 defines ---------- 
.................... #ifndef USB_EP12_TX_ENABLE 
....................  #define USB_EP12_TX_ENABLE USB_ENABLE_DISABLED 
.................... #endif 
.................... #ifndef USB_EP12_RX_ENABLE 
....................  #define USB_EP12_RX_ENABLE USB_ENABLE_DISABLED 
.................... #endif 
....................  
.................... #if USB_EP12_RX_ENABLE==USB_ENABLE_DISABLED 
....................  #ifdef USB_EP12_RX_SIZE 
....................   #undef USB_EP12_RX_SIZE 
....................  #endif 
....................  #define USB_EP12_RX_SIZE 0 
.................... #else 
....................  #ifndef USB_EP12_RX_SIZE 
....................   #error You enabled EP12 for RX but didn't specify endpoint size 
....................  #endif 
.................... #endif 
....................  
.................... #if USB_EP12_TX_ENABLE==USB_ENABLE_DISABLED 
....................  #ifdef USB_EP12_TX_SIZE 
....................   #undef USB_EP12_TX_SIZE 
....................  #endif 
....................  #define USB_EP12_TX_SIZE 0 
.................... #else 
....................  #ifndef USB_EP12_TX_SIZE 
....................   #error You enabled EP12 for TX but didn't specify endpoint size 
....................  #endif 
.................... #endif 
....................  
....................  
.................... //--------- endpoint 13 defines ---------- 
.................... #ifndef USB_EP13_TX_ENABLE 
....................  #define USB_EP13_TX_ENABLE USB_ENABLE_DISABLED 
.................... #endif 
.................... #ifndef USB_EP13_RX_ENABLE 
....................  #define USB_EP13_RX_ENABLE USB_ENABLE_DISABLED 
.................... #endif 
....................  
.................... #if USB_EP13_RX_ENABLE==USB_ENABLE_DISABLED 
....................  #ifdef USB_EP13_RX_SIZE 
....................   #undef USB_EP13_RX_SIZE 
....................  #endif 
....................  #define USB_EP13_RX_SIZE 0 
.................... #else 
....................  #ifndef USB_EP13_RX_SIZE 
....................   #error You enabled EP13 for RX but didn't specify endpoint size 
....................  #endif 
.................... #endif 
....................  
.................... #if USB_EP13_TX_ENABLE==USB_ENABLE_DISABLED 
....................  #ifdef USB_EP13_TX_SIZE 
....................   #undef USB_EP13_TX_SIZE 
....................  #endif 
....................  #define USB_EP13_TX_SIZE 0 
.................... #else 
....................  #ifndef USB_EP13_TX_SIZE 
....................   #error You enabled EP13 for TX but didn't specify endpoint size 
....................  #endif 
.................... #endif 
....................  
....................  
.................... //--------- endpoint 14 defines ---------- 
.................... #ifndef USB_EP14_TX_ENABLE 
....................  #define USB_EP14_TX_ENABLE USB_ENABLE_DISABLED 
.................... #endif 
.................... #ifndef USB_EP14_RX_ENABLE 
....................  #define USB_EP14_RX_ENABLE USB_ENABLE_DISABLED 
.................... #endif 
....................  
.................... #if USB_EP14_RX_ENABLE==USB_ENABLE_DISABLED 
....................  #ifdef USB_EP14_RX_SIZE 
....................   #undef USB_EP14_RX_SIZE 
....................  #endif 
....................  #define USB_EP14_RX_SIZE 0 
.................... #else 
....................  #ifndef USB_EP14_RX_SIZE 
....................   #error You enabled EP14 for RX but didn't specify endpoint size 
....................  #endif 
.................... #endif 
....................  
.................... #if USB_EP14_TX_ENABLE==USB_ENABLE_DISABLED 
....................  #ifdef USB_EP14_TX_SIZE 
....................   #undef USB_EP14_TX_SIZE 
....................  #endif 
....................  #define USB_EP14_TX_SIZE 0 
.................... #else 
....................  #ifndef USB_EP14_TX_SIZE 
....................   #error You enabled EP14 for TX but didn't specify endpoint size 
....................  #endif 
.................... #endif 
....................  
....................  
.................... //--------- endpoint 15 defines ---------- 
.................... #ifndef USB_EP15_TX_ENABLE 
....................  #define USB_EP15_TX_ENABLE USB_ENABLE_DISABLED 
.................... #endif 
.................... #ifndef USB_EP15_RX_ENABLE 
....................  #define USB_EP15_RX_ENABLE USB_ENABLE_DISABLED 
.................... #endif 
....................  
.................... #if USB_EP15_RX_ENABLE==USB_ENABLE_DISABLED 
....................  #ifdef USB_EP15_RX_SIZE 
....................   #undef USB_EP15_RX_SIZE 
....................  #endif 
....................  #define USB_EP15_RX_SIZE 0 
.................... #else 
....................  #ifndef USB_EP15_RX_SIZE 
....................   #error You enabled EP15 for RX but didn't specify endpoint size 
....................  #endif 
.................... #endif 
....................  
.................... #if USB_EP15_TX_ENABLE==USB_ENABLE_DISABLED 
....................  #ifdef USB_EP15_TX_SIZE 
....................   #undef USB_EP15_TX_SIZE 
....................  #endif 
....................  #define USB_EP15_TX_SIZE 0 
.................... #else 
....................  #ifndef USB_EP15_TX_SIZE 
....................   #error You enabled EP15 for TX but didn't specify endpoint size 
....................  #endif 
.................... #endif 
....................  
.................... const int8 usb_ep_tx_type[16]={ 
....................   USB_EP0_TX_ENABLE, USB_EP1_TX_ENABLE, USB_EP2_TX_ENABLE, 
....................   USB_EP3_TX_ENABLE, USB_EP4_TX_ENABLE, USB_EP5_TX_ENABLE, 
....................   USB_EP6_TX_ENABLE, USB_EP7_TX_ENABLE, USB_EP8_TX_ENABLE, 
....................   USB_EP9_TX_ENABLE, USB_EP10_TX_ENABLE, USB_EP11_TX_ENABLE, 
....................   USB_EP12_TX_ENABLE, USB_EP13_TX_ENABLE, USB_EP14_TX_ENABLE, 
....................   USB_EP15_TX_ENABLE 
.................... }; 
....................  
.................... const int8 usb_ep_rx_type[16]={ 
....................   USB_EP0_RX_ENABLE, USB_EP1_RX_ENABLE, USB_EP2_RX_ENABLE, 
....................   USB_EP3_RX_ENABLE, USB_EP4_RX_ENABLE, USB_EP5_RX_ENABLE, 
....................   USB_EP6_RX_ENABLE, USB_EP7_RX_ENABLE, USB_EP8_RX_ENABLE, 
....................   USB_EP9_RX_ENABLE, USB_EP10_RX_ENABLE, USB_EP11_RX_ENABLE, 
....................   USB_EP12_RX_ENABLE, USB_EP13_RX_ENABLE, USB_EP14_RX_ENABLE, 
....................   USB_EP15_RX_ENABLE 
.................... }; 
....................  
.................... const int16 usb_ep_tx_size[16]={ 
....................   USB_EP0_TX_SIZE, USB_EP1_TX_SIZE, USB_EP2_TX_SIZE, 
....................   USB_EP3_TX_SIZE, USB_EP4_TX_SIZE, USB_EP5_TX_SIZE, 
....................   USB_EP6_TX_SIZE, USB_EP7_TX_SIZE, USB_EP8_TX_SIZE, 
....................   USB_EP9_TX_SIZE, USB_EP10_TX_SIZE, USB_EP11_TX_SIZE, 
....................   USB_EP12_TX_SIZE, USB_EP13_TX_SIZE, USB_EP14_TX_SIZE, 
....................   USB_EP15_TX_SIZE 
.................... }; 
....................  
.................... const int16 usb_ep_rx_size[16]={ 
....................   USB_EP0_RX_SIZE, USB_EP1_RX_SIZE, USB_EP2_RX_SIZE, 
....................   USB_EP3_RX_SIZE, USB_EP4_RX_SIZE, USB_EP5_RX_SIZE, 
....................   USB_EP6_RX_SIZE, USB_EP7_RX_SIZE, USB_EP8_RX_SIZE, 
....................   USB_EP9_RX_SIZE, USB_EP10_RX_SIZE, USB_EP11_RX_SIZE, 
....................   USB_EP12_RX_SIZE, USB_EP13_RX_SIZE, USB_EP14_RX_SIZE, 
....................   USB_EP15_RX_SIZE 
.................... }; 
....................  
.................... #ENDIF 
....................  
....................  
.................... #IFNDEF __USB_HARDWARE__ 
....................    #ERROR You must include USB hardware driver. 
.................... #ENDIF 
....................  
.................... #IFNDEF __USB_DESCRIPTORS__ 
....................    #ERROR You must include USB descriptors. 
.................... #ENDIF 
....................  
.................... int8 USB_address_pending;                        //save previous state because packets can take several isrs 
.................... int8 usb_getdesc_ptr; int8 usb_getdesc_len=0;             //for reading string and config descriptors 
....................  
.................... #IF USB_HID_BOOT_PROTOCOL 
.................... int8 hid_protocol[USB_NUM_HID_INTERFACES]; 
.................... #ENDIF 
....................  
.................... int8 USB_Interface[USB_MAX_NUM_INTERFACES];              //config state for all of our interfaces, NUM_INTERFACES defined with descriptors 
....................  
.................... /// BEGIN User Functions 
....................  
.................... /**************************************************************************** 
.................... /* usb_kbhit(endpoint) 
.................... /* 
.................... /* Input: endpoint - endpoint to check 
.................... /* 
.................... /* Output: TRUE if there is new data in RX buffer, FALSE if there is not. 
.................... /* 
.................... /* Summary: Similar to kbhit(), sees if there is new data in the RX USB buffers. 
.................... /* 
.................... /*****************************************************************************/ 
.................... #define usb_kbhit(x) bit_test(__usb_kbhit_status,x) 
....................  
.................... /************************************************************** 
.................... /* usb_enumerated() 
.................... /* 
.................... /* Input: Global variable USB_Curr_Config 
.................... /* Returns: Returns a 1 if device is configured / enumerated, 
.................... /*          Returns a 0 if device is un-configured / not enumerated. 
.................... /* 
.................... /* Summary: Use this to see if device is configured / enumerated. 
.................... /***************************************************************/ 
.................... #define usb_enumerated() (USB_stack_status.curr_config) 
....................  
.................... /************************************************************** 
.................... /* usb_wait_for_enumeration() 
.................... /* 
.................... /* Input: Global variable USB_Curr_Config 
.................... /* 
.................... /* Summary: Waits in-definately until device is configured / enumerated. 
.................... /***************************************************************/ 
.................... void usb_wait_for_enumeration(void) { 
....................    while (USB_stack_status.curr_config == 0) {restart_wdt();} 
.................... } 
....................  
.................... /**************************************************************************** 
.................... /* usb_puts(endpoint, *ptr, len, timeout) 
.................... /* 
.................... /* Inputs: endpoint - endpoint to send data out 
.................... /*         ptr - points to array of data to send 
.................... /*         len - amount of data to send 
.................... /*         timeout - time in milli-seconds, for each packet, to wait before timeout. 
.................... /*                   set to 0 for no timeout. 
.................... /* 
.................... /* Summary: Used for sending multiple packets of data as one message.  If sending 
.................... /*          only one packet it is more effecient to use only usb_put_packet() 
.................... /* 
.................... /*****************************************************************************/ 
.................... int1 usb_puts(int8 endpoint, int8 * ptr, int16 len, int8 timeout) { 
....................    int16 i=0; 
....................    int1 res; 
....................    int16 this_packet_len; 
....................    int16 packet_size; 
....................    int32 timeout_1us; 
....................  
....................    packet_size=usb_ep_tx_size[endpoint]; 
....................  
....................    //send data packets until timeout or no more packets to send 
....................    while (i < len) { 
....................       timeout_1us=(int32)timeout*1000; 
....................       if ((len - i) > packet_size) {this_packet_len=packet_size;} 
....................       else {this_packet_len=len-i;} 
....................       do { 
....................          res=usb_put_packet(endpoint,ptr + i,this_packet_len,USB_DTS_TOGGLE);   //send 64 byte packets 
....................          if (!res) { 
....................             delay_us(1); 
....................             timeout_1us--; 
....................          } 
....................       } while (!res && timeout_1us); 
....................       i+=packet_size; 
....................    } 
....................  
....................  
....................    //send 0len packet if needed 
....................    if (i==len) { 
....................       timeout_1us=(int32)timeout*1000; 
....................       do { 
....................          res=usb_put_packet(endpoint,0,0,USB_DTS_TOGGLE);   //indicate end of message 
....................          if (!res) { 
....................             delay_us(1); 
....................             timeout_1us--; 
....................          } 
....................       } while (!res && timeout_1us); 
....................    } 
....................  
....................    return(res); 
.................... } 
....................  
.................... /**************************************************************************** 
.................... /* usb_gets(endpoint, ptr, max, timeout) 
.................... /* 
.................... /* Input: endpoint - endpoint to get data from 
.................... /*        ptr - place / array to store data to 
.................... /*        max - max amount of data to get from USB and store into ptr 
.................... /*         timeout - time in milliseconds, for each packet, to wait before timeout. 
.................... /*                   set to 0 for no timeout. 
.................... /* 
.................... /* Output: Amount of data returned.  It may be less than max. 
.................... /* 
.................... /* Summary: Gets data from the host.  Will get multiple-packet messages 
.................... /*          and finish when either it receives a 0-len packet or a packet 
.................... /*          of less size than maximum. 
.................... /* 
.................... /* NOTE: NOT THOUROUGHLY TESTED.  I AM NOT EVEN SURE IF THIS IS A GOOD IDEA 
.................... /* 
.................... /*****************************************************************************/ 
.................... int8 usb_gets(int8 endpoint, int8 * ptr, int16 max, int16 timeout) { 
....................    int16 ret=0; 
*
0E0C:  CLRF   x7C
0E0E:  CLRF   x7D
....................    int16 to; 
....................    int16 len; 
....................    int16 packet_size; 
....................    int16 this_packet_max; 
....................  
....................    packet_size=usb_ep_rx_size[endpoint]; 
0E10:  BCF    FD8.0
0E12:  RLCF   x75,W
0E14:  CLRF   03
0E16:  MOVFF  FF2,86
0E1A:  BCF    FF2.7
0E1C:  CALL   00BE
0E20:  TBLRD*+
0E22:  MOVFF  FF5,03
0E26:  BTFSC  x86.7
0E28:  BSF    FF2.7
0E2A:  MOVWF  x82
0E2C:  MOVFF  03,83
....................  
....................    do { 
....................       if (packet_size < max) {this_packet_max=packet_size;} else {this_packet_max=max;} 
0E30:  MOVF   x83,W
0E32:  SUBWF  x79,W
0E34:  BNC   0E48
0E36:  BNZ   0E3E
0E38:  MOVF   x78,W
0E3A:  SUBWF  x82,W
0E3C:  BC    0E48
0E3E:  MOVFF  83,85
0E42:  MOVFF  82,84
0E46:  BRA    0E50
0E48:  MOVFF  79,85
0E4C:  MOVFF  78,84
....................       to=0; 
0E50:  CLRF   x7F
0E52:  CLRF   x7E
....................       do { 
....................          if (usb_kbhit(endpoint)) { 
0E54:  MOVFF  24,03
0E58:  MOVFF  23,02
0E5C:  MOVF   x75,W
0E5E:  MOVWF  00
0E60:  BZ    0E6C
0E62:  BCF    FD8.0
0E64:  RRCF   03,F
0E66:  RRCF   02,F
0E68:  DECFSZ 00,F
0E6A:  BRA    0E62
0E6C:  MOVF   02,W
0E6E:  BTFSS  02.0
0E70:  BRA    0EAC
....................             len=usb_get_packet(endpoint,ptr,this_packet_max); 
0E72:  MOVFF  75,86
0E76:  MOVFF  77,88
0E7A:  MOVFF  76,87
0E7E:  MOVFF  85,8A
0E82:  MOVFF  84,89
0E86:  BRA    0DA4
0E88:  MOVFF  02,81
0E8C:  MOVFF  01,80
....................             ptr+=len; 
0E90:  MOVF   x80,W
0E92:  ADDWF  x76,F
0E94:  MOVF   x81,W
0E96:  ADDWFC x77,F
....................             max-=len; 
0E98:  MOVF   x80,W
0E9A:  SUBWF  x78,F
0E9C:  MOVF   x81,W
0E9E:  SUBWFB x79,F
....................             ret+=len; 
0EA0:  MOVF   x80,W
0EA2:  ADDWF  x7C,F
0EA4:  MOVF   x81,W
0EA6:  ADDWFC x7D,F
....................             break; 
0EA8:  BRA    0EC4
....................          } 
....................          else { 
0EAA:  BRA    0EB8
....................             to++; 
0EAC:  INCF   x7E,F
0EAE:  BTFSC  FD8.2
0EB0:  INCF   x7F,F
....................             delay_ms(1); 
0EB2:  MOVLW  01
0EB4:  MOVWF  x86
0EB6:  RCALL  0DE4
....................          } 
....................       } while (to!=timeout); 
0EB8:  MOVF   x7A,W
0EBA:  SUBWF  x7E,W
0EBC:  BNZ   0E54
0EBE:  MOVF   x7B,W
0EC0:  SUBWF  x7F,W
0EC2:  BNZ   0E54
....................    } while ((len == packet_size) && (to!=timeout) && max); 
0EC4:  MOVF   x82,W
0EC6:  SUBWF  x80,W
0EC8:  BNZ   0EE2
0ECA:  MOVF   x83,W
0ECC:  SUBWF  x81,W
0ECE:  BNZ   0EE2
0ED0:  MOVF   x7A,W
0ED2:  SUBWF  x7E,W
0ED4:  BNZ   0EDC
0ED6:  MOVF   x7B,W
0ED8:  SUBWF  x7F,W
0EDA:  BZ    0EE2
0EDC:  MOVF   x78,W
0EDE:  IORWF  x79,W
0EE0:  BNZ   0E30
....................  
....................    return(ret); 
0EE2:  MOVFF  7C,01
.................... } 
0EE6:  GOTO   1022 (RETURN)
....................  
.................... /// END User Functions 
....................  
....................  
.................... /// BEGIN USB Token, standard and HID request handler (part of ISR) 
....................  
.................... /************************************************************** 
.................... /* usb_token_reset() 
.................... /* 
.................... /* Output: modifies global variables USB_Interface[], in[], usb_getdesc_ptr, 
.................... /*         usb_getdesc_len, USB_status_device, USB_dev_req 
.................... /* 
.................... /* Summary: Resets the token handler to initial (unconfigured) state. 
.................... /***************************************************************/ 
.................... void usb_token_reset() { 
....................    int i; 
....................  
....................  
....................  
....................       for (i=0;i<USB_MAX_NUM_INTERFACES;i++) { 
*
0204:  CLRF   x98
0206:  MOVF   x98,F
0208:  BNZ   021E
....................          USB_Interface[i]=0;   //reset each interface to default 
020A:  CLRF   03
020C:  MOVF   x98,W
020E:  ADDLW  2D
0210:  MOVWF  FE9
0212:  MOVLW  00
0214:  ADDWFC 03,W
0216:  MOVWF  FEA
0218:  CLRF   FEF
....................       } 
....................  
....................   #IF USB_HID_BOOT_PROTOCOL 
....................    for (i=0;i<USB_NUM_HID_INTERFACES; i++) { 
....................        hid_protocol[i]=1; 
....................    } 
....................   #endif 
....................  
....................   #if USB_CDC_DEVICE 
021A:  INCF   x98,F
021C:  BRA    0206
....................    usb_cdc_init(); 
....................   #endif 
....................  
....................     USB_stack_status.curr_config=0;      //unconfigured device 
021E:  CLRF   20
....................  
....................     USB_stack_status.status_device=1;    //previous state.  init at none 
0220:  MOVLW  01
0222:  MOVWF  21
....................     USB_stack_status.dev_req=NONE;       //previous token request state.  init at none 
0224:  CLRF   1F
.................... } 
0226:  RETLW  00
....................  
.................... //send a 0len packet to endpoint 0 (optimization) 
.................... //notice that this doesnt return the status 
.................... #define usb_put_0len_0() usb_request_send_response(0) 
....................  
.................... /************************************************************** 
.................... /* usb_endpoint_is_valid(endpoint) 
.................... /* 
.................... /* Input: endpoint - endpoint to check. 
.................... /*                   bit 7 is direction (set is IN, clear is OUT) 
.................... /* 
.................... /* Output: TRUE if endpoint is valid, FALSE if not 
.................... /* 
.................... /* Summary: Checks the dynamic configuration to see if requested 
.................... /*          endpoint is a valid endpoint. 
.................... /***************************************************************/ 
.................... // 
.................... int1 usb_endpoint_is_valid(int8 endpoint) { 
....................    int1 direction; 
....................    direction = bit_test(endpoint,7); 
*
0740:  BCF    x9A.0
0742:  BTFSC  x99.7
0744:  BSF    x9A.0
....................    endpoint &= 0x7F; 
0746:  BCF    x99.7
....................    if (direction) { //IN 
0748:  BTFSS  x9A.0
074A:  BRA    076C
....................       return(usb_ep_tx_type[endpoint] != USB_ENABLE_DISABLED); 
074C:  CLRF   03
074E:  MOVF   x99,W
0750:  MOVFF  FF2,9B
0754:  BCF    FF2.7
0756:  RCALL  009E
0758:  BTFSC  x9B.7
075A:  BSF    FF2.7
075C:  XORLW  00
075E:  BNZ   0764
0760:  MOVLW  00
0762:  BRA    0766
0764:  MOVLW  01
0766:  MOVWF  01
0768:  BRA    078A
....................    } 
....................    else {   //OUT 
076A:  BRA    078A
....................       return(usb_ep_rx_type[endpoint] != USB_ENABLE_DISABLED); 
076C:  CLRF   03
076E:  MOVF   x99,W
0770:  MOVFF  FF2,9B
0774:  BCF    FF2.7
0776:  RCALL  009E
0778:  BTFSC  x9B.7
077A:  BSF    FF2.7
077C:  XORLW  00
077E:  BNZ   0784
0780:  MOVLW  00
0782:  BRA    0786
0784:  MOVLW  01
0786:  MOVWF  01
0788:  BRA    078A
....................    } 
.................... } 
078A:  GOTO   086E (RETURN)
....................  
.................... ///---------------------------------------------------------------/// 
.................... /// Processing Message stages is the biggest portion of the ISR   /// 
.................... ///---------------------------------------------------------------/// 
....................  
.................... /************************************************************** 
.................... /* usb_isr_tok_in_dne(endpoint) 
.................... /* 
.................... /* Input: endpoint - which endpoint we are processing a setup token.  Should be 0. 
.................... /* 
.................... /* Summary: When receiving an IN token from the PC on endpoint 0 that means the 
.................... /*          host is asking for a response from a setup token, or the next packet 
.................... /*          from a currently processing token.  (For example, a 24 byte descriptor 
.................... /*          would require 3 IN tokens if the packet size is 8 bytes.)  USB_dev_req 
.................... /*          is a global variable that defines what setup token we are currently processing. 
.................... /* 
.................... /* Part of USB interrupt service routine. 
.................... /* Only checks endpoint 0. 
.................... /***************************************************************/ 
.................... void usb_isr_tok_in_dne(int8 endpoint) { 
....................    if (endpoint==0) { 
*
0B14:  MOVF   x99,F
0B16:  BNZ   0B2A
....................       if (USB_stack_status.dev_req == GET_DESCRIPTOR) {usb_copy_desc_seg_to_ep();} //check this, we are missing report descriptor? 
0B18:  DECFSZ 1F,W
0B1A:  BRA    0B22
0B1C:  CALL   02C6
....................       else if (USB_stack_status.dev_req == SET_ADDRESS) {usb_finish_set_address();} 
0B20:  BRA    0B2A
0B22:  MOVF   1F,W
0B24:  SUBLW  02
0B26:  BNZ   0B2A
0B28:  BRA    0B06
....................    } 
....................   #if USB_CDC_DEVICE 
....................   else if (endpoint==USB_CDC_DATA_IN_ENDPOINT) { //see ex_usb_serial.c example and usb_cdc.h driver 
....................       usb_isr_tok_in_cdc_data_dne(); 
....................   } 
....................   #endif 
.................... } 
0B2A:  RETLW  00
....................  
.................... /************************************************************** 
.................... /* usb_isr_tok_out_dne(endpoint) 
.................... /* 
.................... /* Input: endpoint contains which endpoint we are receiving data. 
.................... /*        This code doesn't allow reception of data from EP0. (Add later) 
.................... /* 
.................... /* Summary: Processes out tokens (out is respective of the host, so actualy incoming 
.................... /*          to the pic), but not out setup tokens.  Data is placed into a 
.................... /*          a buffer if it is empty, and the rx flag is set.  If the buffer 
.................... /*          is not empty then the overrun bit of that EP status byte is set it. 
.................... /***************************************************************/ 
.................... void usb_isr_tok_out_dne(int8 endpoint) { 
....................    //TODO: 
....................    if (endpoint==0) { 
*
0AC6:  MOVF   x99,F
0AC8:  BNZ   0AD0
....................      debug_usb(debug_putc,"TOUT 0 "); 
....................      #if USB_CDC_DEVICE 
....................       usb_isr_tok_out_cdc_control_dne(); 
....................      #else 
....................       usb_init_ep0_setup(); 
0ACA:  CALL   0254
....................      #endif 
....................    } 
....................   #if USB_CDC_DEVICE 
....................    else if (endpoint==USB_CDC_DATA_OUT_ENDPOINT) { //see ex_usb_serial.c example and usb_cdc.h driver 
....................       usb_isr_tok_out_cdc_data_dne(); 
....................    } 
....................   #endif 
....................    else { 
0ACE:  BRA    0AEE
....................       bit_set(__usb_kbhit_status,endpoint); 
0AD0:  CLRF   03
0AD2:  MOVLW  01
0AD4:  MOVWF  02
0AD6:  MOVF   x99,W
0AD8:  MOVWF  00
0ADA:  BZ    0AE6
0ADC:  BCF    FD8.0
0ADE:  RLCF   02,F
0AE0:  RLCF   03,F
0AE2:  DECFSZ 00,F
0AE4:  BRA    0ADC
0AE6:  MOVF   02,W
0AE8:  IORWF  23,F
0AEA:  MOVF   03,W
0AEC:  IORWF  24,F
....................    } 
.................... } 
0AEE:  RETLW  00
....................  
....................  
.................... //---- process setup message stage -----------// 
.................... ////// HUGE - most of our code is to read setup messages //// 
....................  
.................... /************************************************************** 
.................... /* usb_isr_tok_setup_dne() 
.................... /* 
.................... /* Input: usb_ep0_rx_buffer[] contains the 8 bytes of the setup packet. 
.................... /* 
.................... /* Output: The DTS we expect for the next packet on OUT 0. 
.................... /* 
.................... /* Summary: This function is the start of code that handles the setup token. 
.................... /*          We must handle all relevant requests, such as Set_Configuration, Get_Descriptor, etc. 
.................... /* 
.................... /*  usb_ep0_rx_buffer[8] now contains setup data packet, which has the following records 
.................... /*  ------------------------------------------------------------------------------------------- 
.................... /*  usb_ep0_rx_buffer[ 0 ]=bmRequestType; Where the setup packet goes 
.................... /*                              bit7   (0) host-to-device 
.................... /*                                     (1) device-to-host 
.................... /*                              bit6-5 (00) usb standard request; 
.................... /*                                     (01) class request; 
.................... /*                                     (10) vendor request 
....................                                        (11) reserved 
.................... /*                              bit4-0 (0000) device 
.................... /*                                     (0001) interface 
.................... /*                                     (0010) endpoint 
.................... /*                                     (0011) other element 
.................... /*                                     (0100) to (1111) reserved 
.................... /*  usb_ep0_rx_buffer[ 1 ]=bRequest ; the request 
.................... /*  usb_ep0_rx_buffer[2,3]=wValue ; a value which corresponds to request 
.................... /*  usb_ep0_rx_buffer[4,5]=wIndex ; could correspond to interface or endpoint... 
.................... /*  usb_ep0_rx_buffer[6,7]=wLength ; number of bytes in next data packet 
.................... /*                        for host-to-device, this exactly how many bytes in data packet 
.................... /*                        for device-to-host, this is the maximum bytes that can fit one packet 
.................... /***************************************************************/ 
.................... void usb_isr_tok_setup_dne(void) { 
....................    USB_stack_status.dev_req=NONE; // clear the device request.. 
*
08D8:  CLRF   1F
....................  
....................    switch(usb_ep0_rx_buffer[0] & 0x7F) { 
08DA:  MOVLB  5
08DC:  MOVF   x00,W
08DE:  ANDLW  7F
08E0:  MOVLB  0
08E2:  BZ    08F2
08E4:  XORLW  01
08E6:  BZ    08F4
08E8:  XORLW  03
08EA:  BZ    08F6
08EC:  XORLW  23
08EE:  BZ    08F8
08F0:  BRA    08FA
....................  
....................       case 0x00:  //standard to device 
....................          debug_usb(debug_putc," d"); 
....................          usb_isr_tkn_setup_StandardDevice(); 
08F2:  BRA    05FE
....................          break; 
....................  
....................       case 0x01:  //standard to interface 
....................          debug_usb(debug_putc," i"); 
....................          usb_isr_tkn_setup_StandardInterface(); 
08F4:  BRA    06A2
....................          break; 
....................  
....................       case 0x02:  //standard to endpoint 
....................          debug_usb(debug_putc," e"); 
....................          usb_isr_tkn_setup_StandardEndpoint(); 
08F6:  BRA    0868
....................          break; 
....................  
.................... #IF USB_HID_DEVICE 
....................       case 0x21:  //class specific request.  the only class this driver supports is HID 
....................          debug_usb(debug_putc," hid"); 
....................          usb_isr_tkn_setup_ClassInterface(); 
08F8:  BRA    08C8
....................          break; 
.................... #endif 
....................  
.................... #if USB_CDC_DEVICE 
....................       case 0x21: 
....................          debug_usb(debug_putc," cdc"); 
....................          usb_isr_tkn_cdc(); 
....................          break; 
.................... #endif 
....................       //TODO: IF YOU WANT VENDOR SPECIFC REQUEST SUPPORT YOU MUST ADD IT HERE 
....................  
....................       default: 
....................          usb_request_stall(); 
08FA:  RCALL  02C0
....................          break; 
08FC:  BRA    08FE
....................    } 
.................... } 
08FE:  GOTO   0B4C (RETURN)
....................  
.................... /************************************************************** 
.................... /* usb_isr_tkn_setup_StandardDevice() 
.................... /* 
.................... /* Input: usb_ep0_rx_buffer[1] == bRequest 
.................... /* 
.................... /* Summary: bmRequestType told us it was a Standard Device request. 
.................... /*          bRequest says which request.  Only certain requests are valid, 
.................... /*          if a non-valid request was made then return with an Wrong-Statue (IDLE) 
.................... /* 
.................... /* Part of usb_isr_tok_setup_dne() 
.................... /***************************************************************/ 
.................... void usb_isr_tkn_setup_StandardDevice(void) { 
....................    switch(usb_ep0_rx_buffer[1]) { 
*
05FE:  MOVLB  5
0600:  MOVF   x01,W
0602:  MOVLB  0
0604:  BZ    0620
0606:  XORLW  01
0608:  BZ    0632
060A:  XORLW  02
060C:  BZ    064A
060E:  XORLW  06
0610:  BZ    0660
0612:  XORLW  03
0614:  BZ    066E
0616:  XORLW  0E
0618:  BZ    0672
061A:  XORLW  01
061C:  BZ    067E
061E:  BRA    069A
....................  
....................       case USB_STANDARD_REQUEST_GET_STATUS:  //0 
....................             debug_usb(debug_putc,"GS"); 
....................             usb_ep0_tx_buffer[0]=USB_stack_status.status_device; 
0620:  MOVFF  21,540
....................             usb_ep0_tx_buffer[1]=0; 
0624:  MOVLB  5
0626:  CLRF   x41
....................             usb_request_send_response(2); 
0628:  MOVLW  02
062A:  MOVLB  0
062C:  MOVWF  x9C
062E:  RCALL  02BA
....................             break; 
0630:  BRA    069E
....................  
....................       case USB_STANDARD_REQUEST_CLEAR_FEATURE:  //1 
....................             if (usb_ep0_rx_buffer[2] == 1) { 
0632:  MOVLB  5
0634:  DECFSZ x02,W
0636:  BRA    0644
....................                debug_usb(debug_putc,"CF"); 
....................                USB_stack_status.status_device &= 1; 
0638:  MOVLW  01
063A:  ANDWF  21,F
....................                usb_put_0len_0(); 
063C:  MOVLB  0
063E:  CLRF   x9C
0640:  RCALL  02BA
....................             } 
....................             else 
0642:  BRA    0648
....................                usb_request_stall(); 
0644:  MOVLB  0
0646:  RCALL  02C0
....................             break; 
0648:  BRA    069E
....................  
....................       case USB_STANDARD_REQUEST_SET_FEATURE: //3 
....................             if (usb_ep0_rx_buffer[2] == 1) { 
064A:  MOVLB  5
064C:  DECFSZ x02,W
064E:  BRA    065A
....................                debug_usb(debug_putc,"SF"); 
....................                USB_stack_status.status_device |= 2; 
0650:  BSF    21.1
....................                usb_put_0len_0(); 
0652:  MOVLB  0
0654:  CLRF   x9C
0656:  RCALL  02BA
....................             } 
....................             else 
0658:  BRA    065E
....................                usb_request_stall(); 
065A:  MOVLB  0
065C:  RCALL  02C0
....................             break; 
065E:  BRA    069E
....................  
....................       case USB_STANDARD_REQUEST_SET_ADDRESS: //5 
....................             debug_usb(debug_putc,"SA"); 
....................             USB_stack_status.dev_req=SET_ADDRESS; //currently processing set_address request 
0660:  MOVLW  02
0662:  MOVWF  1F
....................             USB_address_pending=usb_ep0_rx_buffer[2]; 
0664:  MOVFF  502,2A
....................             #ifdef __USBN__   //NATIONAL part handles this differently than pic16c7x5 
....................             USB_stack_status.dev_req=NONE; //currently processing set_address request 
....................             usb_set_address(USB_address_pending); 
....................          	USB_stack_status.curr_config=0;	// make sure current configuration is 0 
....................             #endif 
....................             usb_put_0len_0(); 
0668:  CLRF   x9C
066A:  RCALL  02BA
....................             break; 
066C:  BRA    069E
....................  
....................       case USB_STANDARD_REQUEST_GET_DESCRIPTOR: //6 
....................             debug_usb(debug_putc,"GD"); 
....................             usb_Get_Descriptor(); 
066E:  RCALL  037E
....................             break; 
0670:  BRA    069E
....................  
....................       case USB_STANDARD_REQUEST_GET_CONFIGURATION: //8 
....................             debug_usb(debug_putc,"GC"); 
....................             usb_ep0_tx_buffer[0]=USB_stack_status.curr_config; 
0672:  MOVFF  20,540
....................             usb_request_send_response(1); 
0676:  MOVLW  01
0678:  MOVWF  x9C
067A:  RCALL  02BA
....................             break; 
067C:  BRA    069E
....................  
....................       case USB_STANDARD_REQUEST_SET_CONFIGURATION: //9 
....................             if (usb_ep0_rx_buffer[2] <= USB_NUM_CONFIGURATIONS) { 
067E:  MOVLB  5
0680:  MOVF   x02,W
0682:  SUBLW  01
0684:  BNC   0696
....................                debug_usb(debug_putc,"SC"); 
....................                USB_stack_status.curr_config=usb_ep0_rx_buffer[2]; 
0686:  MOVFF  502,20
....................                usb_set_configured(usb_ep0_rx_buffer[2]); 
068A:  MOVFF  502,99
068E:  MOVLB  0
0690:  BRA    046C
....................                usb_put_0len_0(); 
0692:  CLRF   x9C
0694:  RCALL  02BA
....................             } 
....................             break; 
0696:  MOVLB  0
0698:  BRA    069E
....................  
....................       default: 
....................             usb_request_stall(); 
069A:  RCALL  02C0
....................             break; 
069C:  BRA    069E
....................    } 
.................... } 
069E:  GOTO   08FE (RETURN)
....................  
.................... /************************************************************** 
.................... /* usb_isr_tkn_setup_StandardInterface() 
.................... /* 
.................... /* Input: usb_ep0_rx_buffer[1] == bRequest 
.................... /* 
.................... /* Summary: bmRequestType told us it was a Standard Interface request. 
.................... /*          bRequest says which request.  Only certain requests are valid, 
.................... /*          if a non-valid request was made then return with an Wrong-Statue (IDLE) 
.................... /* 
.................... /* Part of usb_isr_tok_setup_dne() 
.................... /***************************************************************/ 
.................... void usb_isr_tkn_setup_StandardInterface(void) { 
....................    int8 curr_config; 
....................  
....................    curr_config=USB_stack_status.curr_config; 
06A2:  MOVFF  20,99
....................  
....................    switch (usb_ep0_rx_buffer[1]) { 
06A6:  MOVLB  5
06A8:  MOVF   x01,W
06AA:  MOVLB  0
06AC:  BZ    06BC
06AE:  XORLW  0A
06B0:  BZ    06CC
06B2:  XORLW  01
06B4:  BZ    0710
06B6:  XORLW  0D
06B8:  BZ    0734
06BA:  BRA    0738
....................       case USB_STANDARD_REQUEST_GET_STATUS: 
....................             debug_usb(debug_putc,"GS"); 
....................             usb_ep0_tx_buffer[0]=0; 
06BC:  MOVLB  5
06BE:  CLRF   x40
....................             usb_ep0_tx_buffer[1]=0; 
06C0:  CLRF   x41
....................             usb_request_send_response(2); 
06C2:  MOVLW  02
06C4:  MOVLB  0
06C6:  MOVWF  x9C
06C8:  RCALL  02BA
....................             break; 
06CA:  BRA    073C
....................  
....................       case USB_STANDARD_REQUEST_GET_INTERFACE: 
....................             if ( curr_config && (usb_ep0_rx_buffer[4] < USB_NUM_INTERFACES[curr_config-1]) ) {   //book says only supports configed state 
06CC:  MOVF   x99,F
06CE:  BZ    070C
06D0:  MOVLW  01
06D2:  SUBWF  x99,W
06D4:  CLRF   03
06D6:  MOVFF  FF2,9B
06DA:  BCF    FF2.7
06DC:  RCALL  018E
06DE:  BTFSC  x9B.7
06E0:  BSF    FF2.7
06E2:  MOVWF  01
06E4:  MOVLB  5
06E6:  SUBWF  x04,W
06E8:  BTFSS  FD8.0
06EA:  BRA    06F0
06EC:  MOVLB  0
06EE:  BRA    070C
....................                debug_usb(debug_putc,"GI"); 
....................                usb_ep0_tx_buffer[0]=USB_Interface[usb_ep0_rx_buffer[4]];//our new outgoing byte 
06F0:  CLRF   03
06F2:  MOVF   x04,W
06F4:  ADDLW  2D
06F6:  MOVWF  FE9
06F8:  MOVLW  00
06FA:  ADDWFC 03,W
06FC:  MOVWF  FEA
06FE:  MOVFF  FEF,540
....................                usb_request_send_response(1);; //send byte back 
0702:  MOVLW  01
0704:  MOVLB  0
0706:  MOVWF  x9C
0708:  RCALL  02BA
....................             } 
....................             else 
070A:  BRA    070E
....................                usb_request_stall(); 
070C:  RCALL  02C0
....................             break; 
070E:  BRA    073C
....................  
....................       case USB_STANDARD_REQUEST_SET_INTERFACE: 
....................             if (curr_config) { //if configured state 
0710:  MOVF   x99,F
0712:  BZ    0730
....................                debug_usb(debug_putc,"SI"); 
....................                USB_Interface[usb_ep0_rx_buffer[4]]=usb_ep0_rx_buffer[2]; 
0714:  CLRF   03
0716:  MOVLB  5
0718:  MOVF   x04,W
071A:  ADDLW  2D
071C:  MOVWF  FE9
071E:  MOVLW  00
0720:  ADDWFC 03,W
0722:  MOVWF  FEA
0724:  MOVFF  502,FEF
....................                usb_put_0len_0(); 
0728:  MOVLB  0
072A:  CLRF   x9C
072C:  RCALL  02BA
....................             } 
....................             else 
072E:  BRA    0732
....................                usb_request_stall(); 
0730:  RCALL  02C0
....................             break; 
0732:  BRA    073C
....................  
.................... #IF USB_HID_DEVICE 
....................       case USB_STANDARD_REQUEST_GET_DESCRIPTOR: 
....................             debug_usb(debug_putc,"GD"); 
....................             usb_Get_Descriptor(); 
0734:  RCALL  037E
....................             break; 
0736:  BRA    073C
.................... #endif 
....................  
.................... //      case USB_STANDARD_REQUEST_CLEAR_FEATURE: 
.................... //      case USB_STANDARD_REQUEST_SET_FEATURE: 
.................... //                let default take care of these, goto wrongstate 
....................       default: 
....................             usb_request_stall(); 
0738:  RCALL  02C0
....................             break; 
073A:  BRA    073C
....................    } 
.................... } 
073C:  GOTO   08FE (RETURN)
....................  
.................... /************************************************************** 
.................... /* usb_isr_tkn_setup_StandardEndpoint() 
.................... /* 
.................... /* Input: usb_ep0_rx_buffer[1] == bRequest 
.................... /* 
.................... /* Summary: bmRequestType told us it was a Standard Endpoint request. 
.................... /*          bRequest says which request.  Only certain requests are valid, 
.................... /*          if a non-valid request was made then return with an Wrong-Statue (IDLE) 
.................... /* 
.................... /* Part of usb_isr_tok_setup_dne() 
.................... /***************************************************************/ 
.................... void usb_isr_tkn_setup_StandardEndpoint(void) { 
....................    if (usb_endpoint_is_valid(usb_ep0_rx_buffer[4])) { 
*
0868:  MOVFF  504,99
086C:  BRA    0740
086E:  MOVF   01,F
0870:  BZ    08C4
....................       switch(usb_ep0_rx_buffer[1]) { 
0872:  MOVLB  5
0874:  MOVF   x01,W
0876:  XORLW  01
0878:  MOVLB  0
087A:  BZ    0886
087C:  XORLW  02
087E:  BZ    0892
0880:  XORLW  03
0882:  BZ    089E
0884:  BRA    08C0
....................  
....................          case USB_STANDARD_REQUEST_CLEAR_FEATURE: 
....................                debug_usb(debug_putc,"CF"); 
....................                usb_unstall_ep(usb_ep0_rx_buffer[4]); 
0886:  MOVFF  504,99
088A:  BRA    078E
....................                usb_put_0len_0(); 
088C:  CLRF   x9C
088E:  RCALL  02BA
....................                break; 
0890:  BRA    08C4
....................  
....................          case USB_STANDARD_REQUEST_SET_FEATURE: 
....................                      debug_usb(debug_putc,"SF"); 
....................                      usb_stall_ep(usb_ep0_rx_buffer[4]); 
0892:  MOVFF  504,99
0896:  BRA    07D0
....................                      usb_put_0len_0(); 
0898:  CLRF   x9C
089A:  RCALL  02BA
....................                      break; 
089C:  BRA    08C4
....................  
....................          case USB_STANDARD_REQUEST_GET_STATUS: 
....................                debug_usb(debug_putc,"GS"); 
....................                usb_ep0_tx_buffer[0]=0; 
089E:  MOVLB  5
08A0:  CLRF   x40
....................                usb_ep0_tx_buffer[1]=0; 
08A2:  CLRF   x41
....................                if (usb_endpoint_stalled(usb_ep0_rx_buffer[4])) { 
08A4:  MOVFF  504,99
08A8:  MOVLB  0
08AA:  BRA    0814
08AC:  MOVF   01,F
08AE:  BZ    08B8
....................                   usb_ep0_tx_buffer[0]=1; 
08B0:  MOVLW  01
08B2:  MOVLB  5
08B4:  MOVWF  x40
08B6:  MOVLB  0
....................                } 
....................                usb_request_send_response(2); 
08B8:  MOVLW  02
08BA:  MOVWF  x9C
08BC:  RCALL  02BA
....................                break; 
08BE:  BRA    08C4
....................  
....................          default: 
....................             usb_request_stall(); 
08C0:  RCALL  02C0
....................             break; 
08C2:  BRA    08C4
....................       } 
....................    } 
.................... } 
08C4:  GOTO   08FE (RETURN)
....................  
.................... /************************************************************** 
.................... /* usb_isr_tkn_setup_ClassInterface() 
.................... /* 
.................... /* Input: usb_ep0_rx_buffer[1] == bRequest 
.................... /* 
.................... /* Summary: bmRequestType told us it was a Class request.  The only Class this drivers supports is HID. 
.................... /*          bRequest says which request.  Only certain requests are valid, 
.................... /*          if a non-valid request was made then return with an Wrong-Statue (IDLE) 
.................... /* 
.................... /* Part of usb_isr_tok_setup_dne() 
.................... /* Only compiled if HID_DEVICE is TRUE 
.................... /***************************************************************/ 
.................... #IF USB_HID_DEVICE 
.................... void usb_isr_tkn_setup_ClassInterface(void) { 
....................    switch(usb_ep0_rx_buffer[1]) { 
08C8:  MOVLB  5
08CA:  MOVF   x01,W
08CC:  BRA    08CE
....................  
....................     #IF USB_HID_BOOT_PROTOCOL 
....................       case USB_HID_REQUEST_GET_PROTOCOL:  //03 
....................             debug_usb(debug_putc,"GP"); 
....................             usb_ep0_tx_buffer[0]=hid_protocol[usb_ep0_rx_buffer[4]]; 
....................             usb_request_send_response(1); 
....................             break; 
....................     #ENDIF 
....................  
....................     #IF USB_HID_BOOT_PROTOCOL 
....................       case USB_HID_REQUEST_SET_PROTOCOL:  //0b 
....................             debug_usb(debug_putc,"SP"); 
....................             hid_protocol[usb_ep0_rx_buffer[4]]=usb_ep0_rx_buffer[2]; 
....................             usb_put_0len_0(); //send 0len packet69 
....................             break; 
....................     #ENDIF 
....................  
....................    #IF USB_HID_IDLE 
....................       case USB_HID_REQUEST_SET_IDLE:   //0a 
....................          #error TODO: if you want to support SET_IDLE, add code here 
....................    #ENDIF 
....................  
....................    #IF USB_HID_IDLE 
....................       case USB_HID_REQUEST_GET_IDLE:   //02 
....................          #error TODO: if you want to support GET_IDLE, add code here 
....................    #ENDIF 
....................  
....................       default: 
....................             usb_request_stall(); 
08CE:  MOVLB  0
08D0:  RCALL  02C0
....................             break; 
08D2:  BRA    08D4
....................    } 
.................... } 
08D4:  GOTO   08FE (RETURN)
.................... #ENDIF 
....................  
.................... /************************************************************** 
.................... /* usb_Get_Descriptor() 
.................... /* 
.................... /* Input: usb_ep0_rx_buffer[3] == wValue, which descriptor we want 
.................... /*        usb_ep0_rx_buffer[6,7] == Max length the host will accept 
.................... /* 
.................... /* Summary: Checks to see if we want a standard descriptor (Interface, Endpoint, Config, Device, String, etc.), 
.................... /*          or a class specific (HID) descriptor.  Since some pics (especially the PIC167x5) doesn't have 
.................... /*          pointers to constants we must simulate or own by setting up global registers that say 
.................... /*          which constant array to deal with, which position to start in this array, and the length. 
.................... /*          Once these globals are setup the first packet is sent.  If a descriptor takes more than one packet 
.................... /*          the PC will send an IN request to endpoint 0, and this will be handled by usb_isr_tok_in_dne() 
.................... /*          which will send the rest of the data. 
.................... /* 
.................... /* Part of usb_isr_tok_setup_dne() 
.................... /***************************************************************/ 
.................... void usb_Get_Descriptor() { 
....................    usb_getdesc_ptr=0; 
*
037E:  CLRF   2B
....................    USB_stack_status.getdesc_type=USB_GETDESC_CONFIG_TYPE; 
0380:  CLRF   22
....................  
....................    switch(usb_ep0_rx_buffer[3]) { 
0382:  MOVLB  5
0384:  MOVF   x03,W
0386:  XORLW  01
0388:  MOVLB  0
038A:  BZ    039E
038C:  XORLW  03
038E:  BZ    03A8
0390:  XORLW  01
0392:  BZ    03AE
0394:  XORLW  22
0396:  BZ    03DC
0398:  XORLW  03
039A:  BZ    0400
039C:  BRA    044E
....................       case USB_DESC_DEVICE_TYPE:    //1 
....................             usb_getdesc_len=USB_DESC_DEVICE_LEN; 
039E:  MOVLW  12
03A0:  MOVWF  2C
....................             USB_stack_status.getdesc_type=USB_GETDESC_DEVICE_TYPE; 
03A2:  MOVLW  03
03A4:  MOVWF  22
....................             break; 
03A6:  BRA    0452
....................  
....................       //windows hosts will send a FF max len and expect you to send all configs without asking for them individually. 
....................       case USB_DESC_CONFIG_TYPE:   //2 
....................             usb_getdesc_len=USB_TOTAL_CONFIG_LEN; 
03A8:  MOVLW  29
03AA:  MOVWF  2C
....................             break; 
03AC:  BRA    0452
....................  
....................       case USB_DESC_STRING_TYPE: //3 
....................             USB_stack_status.getdesc_type=USB_GETDESC_STRING_TYPE; 
03AE:  MOVLW  02
03B0:  MOVWF  22
....................             usb_getdesc_ptr=USB_STRING_DESC_OFFSET[usb_ep0_rx_buffer[2]]; 
03B2:  CLRF   03
03B4:  MOVLB  5
03B6:  MOVF   x02,W
03B8:  ADDLW  27
03BA:  MOVWF  FE9
03BC:  MOVLW  00
03BE:  ADDWFC 03,W
03C0:  MOVWF  FEA
03C2:  MOVFF  FEF,2B
....................             usb_getdesc_len=USB_STRING_DESC[usb_getdesc_ptr]; 
03C6:  CLRF   03
03C8:  MOVF   2B,W
03CA:  MOVFF  FF2,9A
03CE:  BCF    FF2.7
03D0:  MOVLB  0
03D2:  RCALL  01C2
03D4:  BTFSC  x9A.7
03D6:  BSF    FF2.7
03D8:  MOVWF  2C
....................             break; 
03DA:  BRA    0452
....................  
.................... #IF USB_HID_DEVICE 
....................       case USB_DESC_CLASS_TYPE:  //0x21 
....................             usb_getdesc_ptr=USB_CLASS_DESCRIPTORS[0][0][0]; 
03DC:  MOVLW  12
03DE:  MOVWF  2B
....................             if (usb_getdesc_ptr!=0xFF) { 
03E0:  INCFSZ 2B,W
03E2:  BRA    03E6
03E4:  BRA    03FC
....................                usb_getdesc_len=USB_CONFIG_DESC[usb_getdesc_ptr]; 
03E6:  CLRF   03
03E8:  MOVF   2B,W
03EA:  MOVFF  FF2,9A
03EE:  BCF    FF2.7
03F0:  RCALL  0154
03F2:  BTFSC  x9A.7
03F4:  BSF    FF2.7
03F6:  MOVWF  2C
....................                break; 
03F8:  BRA    0452
....................             } 
....................             else { 
03FA:  BRA    0400
....................                usb_request_stall(); 
03FC:  RCALL  02C0
....................                return; 
03FE:  BRA    046A
....................             } 
....................  
....................  
....................       case USB_DESC_HIDREPORT_TYPE: //0x22 
....................             usb_getdesc_ptr=USB_CLASS_SPECIFIC_DESC_LOOKUP[0][usb_ep0_rx_buffer[4]]; 
0400:  BCF    FD8.0
0402:  MOVLB  5
0404:  RLCF   x04,W
0406:  CLRF   03
0408:  MOVFF  FF2,9A
040C:  BCF    FF2.7
040E:  MOVLB  0
0410:  RCALL  0130
0412:  TBLRD*+
0414:  MOVFF  FF5,03
0418:  BTFSC  x9A.7
041A:  BSF    FF2.7
041C:  MOVWF  2B
....................             if (usb_getdesc_ptr !=0xFF) { 
041E:  INCFSZ 2B,W
0420:  BRA    0424
0422:  BRA    044A
....................                USB_stack_status.getdesc_type=USB_GETDESC_HIDREPORT_TYPE; 
0424:  MOVLW  01
0426:  MOVWF  22
....................                usb_getdesc_len=USB_CLASS_SPECIFIC_DESC_LOOKUP_SIZE[0][usb_ep0_rx_buffer[4]]; 
0428:  BCF    FD8.0
042A:  MOVLB  5
042C:  RLCF   x04,W
042E:  CLRF   03
0430:  MOVFF  FF2,9A
0434:  BCF    FF2.7
0436:  MOVLB  0
0438:  RCALL  0142
043A:  TBLRD*+
043C:  MOVFF  FF5,03
0440:  BTFSC  x9A.7
0442:  BSF    FF2.7
0444:  MOVWF  2C
....................                break; 
0446:  BRA    0452
....................             } 
....................             else { 
0448:  BRA    044E
....................                usb_request_stall(); 
044A:  RCALL  02C0
....................                return; 
044C:  BRA    046A
....................             } 
.................... #endif 
....................  
....................       default: 
....................             usb_request_stall(); 
044E:  RCALL  02C0
....................             return; 
0450:  BRA    046A
....................    } 
....................    if (usb_ep0_rx_buffer[7]==0) { 
0452:  MOVLB  5
0454:  MOVF   x07,F
0456:  BNZ   0462
....................       if (usb_getdesc_len > usb_ep0_rx_buffer[6]) 
0458:  MOVF   2C,W
045A:  SUBWF  x06,W
045C:  BC    0462
....................          usb_getdesc_len = usb_ep0_rx_buffer[6]; 
045E:  MOVFF  506,2C
....................    } 
....................    USB_stack_status.dev_req=GET_DESCRIPTOR; 
0462:  MOVLW  01
0464:  MOVWF  1F
....................    usb_copy_desc_seg_to_ep(); 
0466:  MOVLB  0
0468:  RCALL  02C6
.................... } 
046A:  RETLW  00
....................  
.................... /************************************************************** 
.................... /* usb_finish_set_address() 
.................... /* 
.................... /* Input: USB_address_pending holds the address we were asked to set to. 
.................... /* 
.................... /* Summary: Sets the address. 
.................... /* 
.................... /* This code should only be run on the PIC USB peripheral, and not the 
.................... /* National peripheral. 
.................... /* 
.................... /* Part of usb_isr_tok_setup_dne() 
.................... /***************************************************************/ 
....................  void usb_finish_set_address() { 
....................    debug_usb(debug_putc," FSA "); 
.................... 	USB_stack_status.curr_config=0;	// make sure current configuration is 0 
*
0B06:  CLRF   20
....................  
....................    #ifdef __PIC__ 
.................... 	USB_stack_status.dev_req=NONE;  // no request pending 
0B08:  CLRF   1F
....................    usb_set_address(USB_address_pending); 
0B0A:  MOVFF  2A,9A
0B0E:  BRA    0AF0
....................    #endif 
.................... } 
0B10:  GOTO   0B2A (RETURN)
....................  
.................... //////////////////////////////////////////////////////////////////////////// 
.................... /// 
.................... /// The following function retrieve data from constant arrays.  This may 
.................... /// look un-optimized, but remember that you can't create a pointer to 
.................... /// a constant array. 
.................... /// 
.................... /////////////////////////////////////////////////////////////////////////// 
.................... void usb_copy_desc_seg_to_ep(void) { 
....................    int i=0; 
*
02C6:  CLRF   x9A
....................    char c; 
....................  
....................    while ((usb_getdesc_len)&&(i<USB_MAX_EP0_PACKET_LENGTH)) 
....................    { 
02C8:  MOVF   2C,F
02CA:  BZ    0348
02CC:  MOVF   x9A,W
02CE:  SUBLW  3F
02D0:  BNC   0348
....................       switch(USB_stack_status.getdesc_type) { 
02D2:  MOVF   22,W
02D4:  ADDLW  FC
02D6:  BC    032E
02D8:  ADDLW  04
02DA:  GOTO   035C
....................          case USB_GETDESC_CONFIG_TYPE: 
....................             c=USB_CONFIG_DESC[usb_getdesc_ptr]; 
02DE:  CLRF   03
02E0:  MOVF   2B,W
02E2:  MOVFF  FF2,9C
02E6:  BCF    FF2.7
02E8:  RCALL  0154
02EA:  BTFSC  x9C.7
02EC:  BSF    FF2.7
02EE:  MOVWF  x9B
....................             break; 
02F0:  BRA    032E
....................  
....................         #IF USB_HID_DEVICE 
....................          case USB_GETDESC_HIDREPORT_TYPE: 
....................             c=USB_CLASS_SPECIFIC_DESC[usb_getdesc_ptr]; 
02F2:  CLRF   03
02F4:  MOVF   2B,W
02F6:  MOVFF  FF2,9C
02FA:  BCF    FF2.7
02FC:  RCALL  0100
02FE:  BTFSC  x9C.7
0300:  BSF    FF2.7
0302:  MOVWF  x9B
....................             break; 
0304:  BRA    032E
....................         #endif 
....................  
....................          case USB_GETDESC_STRING_TYPE: 
....................             c=USB_STRING_DESC[usb_getdesc_ptr]; 
0306:  CLRF   03
0308:  MOVF   2B,W
030A:  MOVFF  FF2,9C
030E:  BCF    FF2.7
0310:  RCALL  01C2
0312:  BTFSC  x9C.7
0314:  BSF    FF2.7
0316:  MOVWF  x9B
....................             break; 
0318:  BRA    032E
....................  
....................          case USB_GETDESC_DEVICE_TYPE: 
....................             c=USB_DEVICE_DESC[usb_getdesc_ptr]; 
031A:  CLRF   03
031C:  MOVF   2B,W
031E:  MOVFF  FF2,9C
0322:  BCF    FF2.7
0324:  RCALL  01A0
0326:  BTFSC  x9C.7
0328:  BSF    FF2.7
032A:  MOVWF  x9B
....................             break; 
032C:  BRA    032E
....................       } 
....................       usb_getdesc_ptr++; 
032E:  INCF   2B,F
....................       usb_getdesc_len--; 
0330:  DECF   2C,F
....................       usb_ep0_tx_buffer[i++]=c; 
0332:  MOVF   x9A,W
0334:  INCF   x9A,F
0336:  CLRF   03
0338:  ADDLW  40
033A:  MOVWF  FE9
033C:  MOVLW  05
033E:  ADDWFC 03,W
0340:  MOVWF  FEA
0342:  MOVFF  9B,FEF
....................    } 
0346:  BRA    02C8
....................  
....................    if ((!usb_getdesc_len)&&(i!=USB_MAX_EP0_PACKET_LENGTH)) { 
0348:  MOVF   2C,F
034A:  BNZ   0354
034C:  MOVF   x9A,W
034E:  SUBLW  40
0350:  BZ    0354
....................          USB_stack_status.dev_req = NONE; 
0352:  CLRF   1F
....................    } 
....................  
....................    usb_request_send_response(i); 
0354:  MOVFF  9A,9C
0358:  RCALL  02BA
.................... } 
035A:  RETLW  00
....................  
.................... #ENDIF 
....................  
....................  
.................... #define  MOTOR_DRIVE   PIN_A4                // Motor: on = 1 off = 0 
.................... #define  MOTOR_DIR     PIN_A5                // Direction: Forward=0 Reverse=1 
.................... #define  LED_DF        PIN_B4                // Turn the Darkfield LED on 
.................... #define  LED_WHITE     PIN_B5                // Turn the White LED on 
.................... #define  LED_RED       PIN_C2                // Turn the Red LED on 
.................... #define  LED_GREEN     PIN_C1                // Turn the Green LED on 
.................... #define  LED_BLUE      PIN_C0                // Turn the Blue LED on 
.................... //#define  MOTOR_DELAY       10                // number of ms to delay per for loop 
....................  
.................... // prototypes 
.................... void ExecuteCmd(void);  
.................... void pulse(void); 
....................  
.................... //Global Variables 
.................... int16 delay; 
.................... int8 command[64];      // command received from system (via usb) 
.................... int8 LEDStatus;        // byte that holds LED on/off status 
....................  
.................... int16 i; 
.................... int16 j; 
.................... // bit 0 = Dark Field 
.................... // bit 1 = white LED 
.................... // bit 2 = Red LED 
.................... // bit 3 = Green LED 
.................... // bit 4 = blue LED 
.................... // the rest are unused for now 
....................  
.................... void main() 
.................... { 
*
0F88:  CLRF   FF8
0F8A:  BCF    FD0.7
0F8C:  BSF    0D.7
0F8E:  CLRF   FEA
0F90:  CLRF   FE9
0F92:  MOVF   FC1,W
0F94:  ANDLW  C0
0F96:  IORLW  0F
0F98:  MOVWF  FC1
0F9A:  MOVLW  07
0F9C:  MOVWF  FB4
0F9E:  CLRF   19
0FA0:  CLRF   1A
0FA2:  CLRF   25
0FA4:  CLRF   27
0FA6:  MOVLW  04
0FA8:  MOVWF  28
0FAA:  MOVLW  0C
0FAC:  MOVWF  29
0FAE:  CLRF   2C
....................  //TurnLEDsOff(); 
....................  usb_init();               // initialize usb communication 
0FB0:  BRA    0CCE
....................  setup_adc_ports(NO_ANALOGS); 
0FB2:  MOVF   FC1,W
0FB4:  ANDLW  C0
0FB6:  IORLW  0F
0FB8:  MOVWF  FC1
....................  setup_spi(FALSE); 
0FBA:  BCF    FC6.5
0FBC:  BCF    F94.7
0FBE:  BSF    F93.0
0FC0:  BCF    F93.1
0FC2:  MOVLW  00
0FC4:  MOVWF  FC6
0FC6:  MOVWF  FC7
....................  setup_timer_0(RTCC_INTERNAL); 
0FC8:  MOVLW  80
0FCA:  MOVWF  FD5
....................  setup_timer_1(T1_DISABLED); 
0FCC:  CLRF   FCD
....................  setup_timer_2(T2_DISABLED,0,1); 
0FCE:  MOVLW  00
0FD0:  MOVWF  FCA
0FD2:  MOVLW  00
0FD4:  MOVWF  FCB
....................  setup_comparator(NC_NC_NC_NC); 
0FD6:  MOVLW  07
0FD8:  MOVWF  FB4
0FDA:  MOVF   F92,W
0FDC:  MOVLW  27
0FDE:  MOVWF  00
0FE0:  DECFSZ 00,F
0FE2:  BRA    0FE0
0FE4:  BRA    0FE6
0FE6:  MOVF   FB4,W
0FE8:  BCF    FA1.6
....................  setup_vref(FALSE); 
0FEA:  CLRF   FB5
....................  setup_oscillator(False); 
0FEC:  CLRF   FD3
0FEE:  MOVF   FD3,W
....................  delay=4; 
0FF0:  CLRF   2F
0FF2:  MOVLW  04
0FF4:  MOVWF  2E
.................... //delay=20; 
....................  output_high(PIN_B5); 
0FF6:  BCF    F93.5
0FF8:  BSF    F8A.5
....................  output_low(PIN_B6); 
0FFA:  BCF    F93.6
0FFC:  BCF    F8A.6
....................   
....................  while (TRUE) { 
....................  output_low(PIN_B7); 
0FFE:  BCF    F93.7
1000:  BCF    F8A.7
....................   /*while (input(PIN_B6)) {   
....................   
....................       output_high(PIN_B6); 
....................      
....................       output_high(PIN_B7); 
....................       delay_ms(delay); 
....................       output_low(PIN_B7); 
....................       delay_ms(delay); 
....................        
....................        
....................       
....................        
....................        
....................       if (usb_enumerated()) {          
....................           if (usb_kbhit(1)) {   // Check for USB commands 
....................               usb_gets(1, command, 64, 100); 
....................               ExecuteCmd(); 
....................                
....................           } 
....................       } 
....................        
....................     } 
....................    output_low(PIN_B6);*/ 
....................     
....................    if (usb_enumerated()) {          
1002:  MOVF   20,F
1004:  BZ    1024
....................        if (usb_kbhit(1)) {   // Check for USB commands 
1006:  BTFSS  23.1
1008:  BRA    1024
....................            usb_gets(1, command, 64, 100); 
100A:  MOVLW  01
100C:  MOVWF  x75
100E:  CLRF   x77
1010:  MOVLW  30
1012:  MOVWF  x76
1014:  CLRF   x79
1016:  MOVLW  40
1018:  MOVWF  x78
101A:  CLRF   x7B
101C:  MOVLW  64
101E:  MOVWF  x7A
1020:  BRA    0E0C
....................            ExecuteCmd(); 
1022:  BRA    0F2A
....................             
....................   
....................          } 
....................    } 
....................  } 
1024:  BRA    0FFE
.................... } 
....................  
.................... //   Executes a command based on the 1st byte in the HUD string  
.................... void ExecuteCmd(void)  
.................... { 
1026:  SLEEP 
....................  int8 n;  
....................     
....................   switch (command[0]) { 
*
0F2A:  MOVF   30,W
0F2C:  XORLW  00
0F2E:  BZ    0F3E
0F30:  XORLW  01
0F32:  BZ    0F44
0F34:  XORLW  03
0F36:  BZ    0F4A
0F38:  XORLW  01
0F3A:  BZ    0F50
0F3C:  BRA    0F56
....................      
....................      case 0://UP 
....................        output_low(PIN_B5); 
0F3E:  BCF    F93.5
0F40:  BCF    F8A.5
....................        break;   
0F42:  BRA    0F56
....................        
....................      case 1://DOWN 
....................        output_high(PIN_B5); 
0F44:  BCF    F93.5
0F46:  BSF    F8A.5
....................        break;   
0F48:  BRA    0F56
....................       
....................      case 2://DISABLE  
....................        output_high(PIN_B4); 
0F4A:  BCF    F93.4
0F4C:  BSF    F8A.4
....................        break;   
0F4E:  BRA    0F56
....................         
....................      case 3://ENABLE 
....................        output_low(PIN_B4); 
0F50:  BCF    F93.4
0F52:  BCF    F8A.4
....................        break;   
0F54:  BRA    0F56
....................       
....................       
....................        default: 
....................   } 
....................    
....................   for (i=0; i<command[2]; i++){ 
0F56:  CLRF   x72
0F58:  CLRF   x71
0F5A:  MOVF   x72,F
0F5C:  BNZ   0F84
0F5E:  MOVF   32,W
0F60:  SUBWF  x71,W
0F62:  BC    0F84
....................                
....................                
....................            for (j=0; j<command[1]; j++){ 
0F64:  CLRF   x74
0F66:  CLRF   x73
0F68:  MOVF   x74,F
0F6A:  BNZ   0F7C
0F6C:  MOVF   31,W
0F6E:  SUBWF  x73,W
0F70:  BC    0F7C
....................                        pulse(); 
0F72:  BRA    0EEA
....................                } 
0F74:  INCF   x73,F
0F76:  BTFSC  FD8.2
0F78:  INCF   x74,F
0F7A:  BRA    0F68
....................   } 
0F7C:  INCF   x71,F
0F7E:  BTFSC  FD8.2
0F80:  INCF   x72,F
0F82:  BRA    0F5A
....................    
.................... } 
0F84:  GOTO   1024 (RETURN)
.................... void pulse(void) 
.................... { 
....................       output_high(PIN_B7); 
*
0EEA:  BCF    F93.7
0EEC:  BSF    F8A.7
....................       delay_ms(delay); 
0EEE:  MOVFF  2F,76
0EF2:  INCF   x76,F
0EF4:  DECF   x76,F
0EF6:  BTFSC  FD8.2
0EF8:  BRA    0F02
0EFA:  MOVLW  FF
0EFC:  MOVWF  x86
0EFE:  RCALL  0DE4
0F00:  BRA    0EF4
0F02:  MOVFF  2E,86
0F06:  RCALL  0DE4
....................       output_low(PIN_B7); 
0F08:  BCF    F93.7
0F0A:  BCF    F8A.7
....................       delay_ms(delay); 
0F0C:  MOVFF  2F,76
0F10:  INCF   x76,F
0F12:  DECF   x76,F
0F14:  BTFSC  FD8.2
0F16:  BRA    0F20
0F18:  MOVLW  FF
0F1A:  MOVWF  x86
0F1C:  RCALL  0DE4
0F1E:  BRA    0F12
0F20:  MOVFF  2E,86
0F24:  RCALL  0DE4
.................... } 
0F26:  GOTO   0F74 (RETURN)
....................    
....................  

Configuration Fuses:
   Word  1: 0E24   NOIESO NOFCMEN HSPLL PLL5 USBDIV CPUDIV1
   Word  2: 1E3E   BROWNOUT NOWDT BORV20 PUT WDT32768 VREGEN
   Word  3: 8300   PBADEN CCP2C1 NOLPT1OSC MCLR RESERVED
   Word  4: 0081   STVREN NODEBUG NOLVP NOXINST RESERVED
   Word  5: C00F   NOPROTECT NOCPD NOCPB
   Word  6: E00F   NOWRT NOWRTD NOWRTC NOWRTB
   Word  7: 400F   NOEBTR NOEBTRB
